 tbb

 Timestamp is 631453e3 (Sun Sep  4 15:29:39 2022)

 Preferred load address is 0000000180000000

 Start         Length     Name                   Class
 0001:00000000 00000040H .text$di                CODE
 0001:00000040 0001f720H .text$mn                CODE
 0001:0001f760 00000040H .text$mn$00             CODE
 0001:0001f7a0 00001100H .text$x                 CODE
 0001:000208a0 0000000cH .text$yd                CODE
 0002:00000000 00000398H .idata$5                DATA
 0002:00000398 00000028H .00cfg                  DATA
 0002:000003c0 00000008H .CRT$XCA                DATA
 0002:000003c8 00000010H .CRT$XCU                DATA
 0002:000003d8 00000008H .CRT$XCZ                DATA
 0002:000003e0 00000008H .CRT$XIA                DATA
 0002:000003e8 00000008H .CRT$XIC                DATA
 0002:000003f0 00000008H .CRT$XIZ                DATA
 0002:000003f8 00000008H .CRT$XLA                DATA
 0002:00000400 00000008H .CRT$XLZ                DATA
 0002:00000408 00000008H .CRT$XPA                DATA
 0002:00000410 00000008H .CRT$XPZ                DATA
 0002:00000418 00000008H .CRT$XTA                DATA
 0002:00000420 00000010H .CRT$XTZ                DATA
 0002:00000428 00000000H .gehcont$y              DATA
 0002:00000428 00000000H .gfids$y                DATA
 0002:00000430 000032d0H .rdata                  DATA
 0002:00003700 00000000H .rdata$CastGuardVftablesA DATA
 0002:00003700 00000000H .rdata$CastGuardVftablesC DATA
 0002:00003700 00000030H .rdata$T                DATA
 0002:00003730 00001d0cH .rdata$r                DATA
 0002:0000543c 00000018H .rdata$voltmd           DATA
 0002:00005454 000003f4H .rdata$zzzdbg           DATA
 0002:00005848 00000008H .rtc$IAA                DATA
 0002:00005850 00000008H .rtc$IZZ                DATA
 0002:00005858 00000008H .rtc$TAA                DATA
 0002:00005860 00000008H .rtc$TZZ                DATA
 0002:00005868 00000004H .tls                    DATA
 0002:0000586c 00000004H .tls$                   DATA
 0002:00005870 00000008H .tls$ZZZ                DATA
 0002:00005878 00002fb0H .xdata                  DATA
 0002:00008828 00000598H .xdata$x                DATA
 0002:00008dc0 00004264H .edata                  DATA
 0002:0000d024 000000b4H .idata$2                DATA
 0002:0000d0d8 00000018H .idata$3                DATA
 0002:0000d0f0 00000398H .idata$4                DATA
 0002:0000d488 0000092aH .idata$6                DATA
 0003:00000000 00002710H .data                   DATA
 0003:00002710 00000360H .data$r                 DATA
 0003:00002a70 00000890H .data$rs                DATA
 0003:00003300 00001e38H .bss                    DATA
 0004:00000000 00002ac0H .pdata                  DATA
 0005:00000000 000000a0H .rsrc$01                DATA
 0005:000000a0 00000560H .rsrc$02                DATA

  Address         Publics by Value              Rva+Base               Lib:Object

 0000:00000000       __arm64x_redirection_metadata 0000000000000000     <absolute>
 0000:00000000       __x64_code_ranges_to_entry_points_count 0000000000000000     <absolute>
 0000:00000000       __guard_iat_count          0000000000000000     <absolute>
 0000:00000000       __guard_longjmp_count      0000000000000000     <absolute>
 0000:00000000       __dynamic_value_reloc_table 0000000000000000     <absolute>
 0000:00000000       __hybrid_auxiliary_iat     0000000000000000     <absolute>
 0000:00000000       __hybrid_auxiliary_iat_copy 0000000000000000     <absolute>
 0000:00000000       __guard_longjmp_table      0000000000000000     <absolute>
 0000:00000000       __x64_code_ranges_to_entry_points 0000000000000000     <absolute>
 0000:00000000       __guard_iat_table          0000000000000000     <absolute>
 0000:00000000       __guard_fids_count         0000000000000000     <absolute>
 0000:00000000       __arm64x_extra_rfe_table   0000000000000000     <absolute>
 0000:00000000       __AbsoluteZero             0000000000000000     <absolute>
 0000:00000000       __hybrid_code_map          0000000000000000     <absolute>
 0000:00000000       __guard_check_icall_a64n_fptr 0000000000000000     <absolute>
 0000:00000000       __arm64x_extra_rfe_table_size 0000000000000000     <absolute>
 0000:00000000       __guard_fids_table         0000000000000000     <absolute>
 0000:00000000       __guard_eh_cont_count      0000000000000000     <absolute>
 0000:00000000       __arm64x_redirection_metadata_count 0000000000000000     <absolute>
 0000:00000000       __enclave_config           0000000000000000     <absolute>
 0000:00000000       __guard_eh_cont_table      0000000000000000     <absolute>
 0000:00000000       __arm64x_native_entrypoint 0000000000000000     <absolute>
 0000:00000000       __hybrid_code_map_count    0000000000000000     <absolute>
 0000:00000100       __guard_flags              0000000000000100     <absolute>
 0000:00000000       __ImageBase                0000000180000000     <linker-defined>
 0001:00000040       ?internal_grow_predicate@hash_map_segment_base@internal@tbb@@QEBA_NXZ 0000000180001040 f   concurrent_hash_map.obj
 0001:00000070       ?independent_thread_number_changed@private_server@rml@internal@tbb@@UEAAXH@Z 0000000180001070 f i private_server.obj
 0001:00000070       ?apply_active@stack_size_control@internal@tbb@@EEBAXXZ 0000000180001070 f i tbb_main.obj
 0001:00000070       ?__global_delete@@YAXPEAX_K@Z 0000000180001070 f i * CIL library *:* CIL module *
 0001:00000070       ?on_scheduler_exit@task_scheduler_observer_v3@internal@tbb@@UEAAX_N@Z 0000000180001070 f i arena.obj
 0001:00000070       _guard_check_icall_nop     0000000180001070 f i MSVCRT:guard_support.obj
 0001:00000070       ?register_master@private_server@rml@internal@tbb@@UEAAXAEAPEAX@Z 0000000180001070 f i private_server.obj
 0001:00000070       ?destroy_condvar_noop@internal@tbb@@YAXPEAU_RTL_CONDITION_VARIABLE@@@Z 0000000180001070 f i condition_variable.obj
 0001:00000070       ?finalize@filter@tbb@@UEAAXPEAX@Z 0000000180001070 f i pipeline.obj
 0001:00000070       ?__empty_global_delete@@YAXPEAX_K@Z 0000000180001070 f i concurrent_hash_map.obj
 0001:00000070       ?internal_destroy@reader_writer_lock@interface5@tbb@@AEAAXXZ 0000000180001070 f i reader_writer_lock.obj
 0001:00000070       ?note_affinity@task@tbb@@UEAAXG@Z 0000000180001070 f i task.obj
 0001:00000070       ?inject_token@pipeline@tbb@@AEAAXAEAVtask@2@@Z 0000000180001070 f i pipeline.obj
 0001:00000070       ?on_scheduler_entry@task_scheduler_observer_v3@internal@tbb@@UEAAX_N@Z 0000000180001070 f i arena.obj
 0001:00000070       ?unregister_master@private_server@rml@internal@tbb@@UEAAXPEAX@Z 0000000180001070 f i private_server.obj
 0001:00000080       ??1scoped_lock@spin_mutex@tbb@@QEAA@XZ 0000000180001080 f i concurrent_queue.obj
 0001:00000090       ??1binary_semaphore@internal@tbb@@QEAA@XZ 0000000180001090 f i concurrent_queue.obj
 0001:000000a0       ??1thread_context@concurrent_monitor@internal@tbb@@QEAA@XZ 00000001800010a0 f i concurrent_queue.obj
 0001:000000e0       ?commit_wait@concurrent_monitor@internal@tbb@@QEAA_NAEAVthread_context@123@@Z 00000001800010e0 f i concurrent_queue.obj
 0001:000001f0       ?abort_all@concurrent_monitor@internal@tbb@@QEAAXXZ 00000001800011f0 f i concurrent_queue.obj
 0001:00000320       ??1micro_queue_pop_finalizer@internal@tbb@@QEAA@XZ 0000000180001320 f i concurrent_queue.obj
 0001:000003f0       ?choose@concurrent_queue_rep@internal@tbb@@QEAAAEAUmicro_queue@23@_K@Z 00000001800013f0 f i concurrent_queue.obj
 0001:00000410       ?push@micro_queue@internal@tbb@@QEAAXPEBX_KAEAVconcurrent_queue_base_v3@23@W4copy_specifics@423@@Z 0000000180001410 f   concurrent_queue.obj
 0001:000005d0       ?abort_push@micro_queue@internal@tbb@@QEAAX_KAEAVconcurrent_queue_base_v3@23@@Z 00000001800015d0 f   concurrent_queue.obj
 0001:000005f0       ?pop@micro_queue@internal@tbb@@QEAA_NPEAX_KAEAVconcurrent_queue_base_v3@23@@Z 00000001800015f0 f   concurrent_queue.obj
 0001:000007e0       ?assign@micro_queue@internal@tbb@@QEAAAEAU123@AEBU123@AEAVconcurrent_queue_base_v3@23@W4copy_specifics@423@@Z 00000001800017e0 f   concurrent_queue.obj
 0001:00000a40       ?make_invalid@micro_queue@internal@tbb@@QEAAX_K@Z 0000000180001a40 f   concurrent_queue.obj
 0001:00000b00       ??0concurrent_queue_base_v3@internal@tbb@@IEAA@_K@Z 0000000180001b00 f   concurrent_queue.obj
 0001:00000c30       ??_Gconcurrent_queue_base_v3@internal@tbb@@MEAAPEAXI@Z 0000000180001c30 f i concurrent_queue.obj
 0001:00000c30       ??_Econcurrent_queue_base_v3@internal@tbb@@MEAAPEAXI@Z 0000000180001c30 f i * CIL library *:* CIL module *
 0001:00000c80       ??1concurrent_queue_base_v3@internal@tbb@@MEAA@XZ 0000000180001c80 f   concurrent_queue.obj
 0001:00000ca0       ?internal_push@concurrent_queue_base_v3@internal@tbb@@IEAAXPEBX@Z 0000000180001ca0 f   concurrent_queue.obj
 0001:00000cb0       ?internal_push_move@concurrent_queue_base_v8@internal@tbb@@IEAAXPEBX@Z 0000000180001cb0 f   concurrent_queue.obj
 0001:00000cc0       ?internal_insert_item@concurrent_queue_base_v3@internal@tbb@@IEAAXPEBXW4copy_specifics@123@@Z 0000000180001cc0 f   concurrent_queue.obj
 0001:00001010       ?internal_pop@concurrent_queue_base_v3@internal@tbb@@IEAAXPEAX@Z 0000000180002010 f   concurrent_queue.obj
 0001:000013b0       ?internal_abort@concurrent_queue_base_v3@internal@tbb@@IEAAXXZ 00000001800023b0 f   concurrent_queue.obj
 0001:000013f0       ?internal_pop_if_present@concurrent_queue_base_v3@internal@tbb@@IEAA_NPEAX@Z 00000001800023f0 f   concurrent_queue.obj
 0001:000014a0       ?internal_push_if_not_full@concurrent_queue_base_v3@internal@tbb@@IEAA_NPEBX@Z 00000001800024a0 f   concurrent_queue.obj
 0001:000014b0       ?internal_push_move_if_not_full@concurrent_queue_base_v8@internal@tbb@@IEAA_NPEBX@Z 00000001800024b0 f   concurrent_queue.obj
 0001:000014c0       ?internal_insert_if_not_full@concurrent_queue_base_v3@internal@tbb@@IEAA_NPEBXW4copy_specifics@123@@Z 00000001800024c0 f   concurrent_queue.obj
 0001:00001570       ?internal_size@concurrent_queue_base_v3@internal@tbb@@IEBA_JXZ 0000000180002570 f   concurrent_queue.obj
 0001:000015a0       ?internal_empty@concurrent_queue_base_v3@internal@tbb@@IEBA_NXZ 00000001800025a0 f   concurrent_queue.obj
 0001:000015e0       ?internal_set_capacity@concurrent_queue_base_v3@internal@tbb@@IEAAX_J_K@Z 00000001800025e0 f   concurrent_queue.obj
 0001:000015e0       ?internal_set_capacity@concurrent_queue_base@internal@tbb@@IEAAX_J_K@Z 00000001800025e0 f   concurrent_queue_v2.obj
 0001:00001600       ?internal_finish_clear@concurrent_queue_base_v3@internal@tbb@@IEAAXXZ 0000000180002600 f   concurrent_queue.obj
 0001:00001670       ?internal_throw_exception@concurrent_queue_base_v3@internal@tbb@@IEBAXXZ 0000000180002670 f   concurrent_queue.obj
 0001:00001680       ?internal_assign@concurrent_queue_base_v3@internal@tbb@@IEAAXAEBV123@W4copy_specifics@123@@Z 0000000180002680 f   concurrent_queue.obj
 0001:00001750       ?assign@concurrent_queue_base_v3@internal@tbb@@IEAAXAEBV123@@Z 0000000180002750 f   concurrent_queue.obj
 0001:00001760       ?move_content@concurrent_queue_base_v8@internal@tbb@@IEAAXAEAV123@@Z 0000000180002760 f   concurrent_queue.obj
 0001:00001770       ?initialize@concurrent_queue_iterator_base_v3@internal@tbb@@AEAAXAEBVconcurrent_queue_base_v3@23@_K@Z 0000000180002770 f   concurrent_queue.obj
 0001:00001870       ??0concurrent_queue_iterator_base_v3@internal@tbb@@IEAA@AEBVconcurrent_queue_base_v3@12@@Z 0000000180002870 f   concurrent_queue.obj
 0001:00001890       ??0concurrent_queue_iterator_base_v3@internal@tbb@@IEAA@AEBVconcurrent_queue_base_v3@12@_K@Z 0000000180002890 f   concurrent_queue.obj
 0001:000018b0       ?assign@concurrent_queue_iterator_base_v3@internal@tbb@@IEAAXAEBV123@@Z 00000001800028b0 f   concurrent_queue.obj
 0001:00001980       ?advance@concurrent_queue_iterator_base_v3@internal@tbb@@IEAAXXZ 0000000180002980 f   concurrent_queue.obj
 0001:00001a30       ??1concurrent_queue_iterator_base_v3@internal@tbb@@IEAA@XZ 0000000180002a30 f   concurrent_queue.obj
 0001:00001a50       ??F?$atomic_impl_with_arithmetic@_K_KD@internal@tbb@@QEAA_KH@Z 0000000180002a50 f i concurrent_queue.obj
 0001:00001a60       ??E?$atomic_impl_with_arithmetic@_K_KD@internal@tbb@@QEAA_KXZ 0000000180002a60 f i concurrent_queue.obj
 0001:00001a70       ??Y?$atomic_impl_with_arithmetic@_K_KD@internal@tbb@@QEAA_K_K@Z 0000000180002a70 f i concurrent_queue.obj
 0001:00001a80       ??$notify@Upredicate_leq@internal@tbb@@@concurrent_monitor@internal@tbb@@QEAAXAEBUpredicate_leq@12@@Z 0000000180002a80 f i concurrent_queue.obj
 0001:00001bd0       ?segment_base@concurrent_vector_base_v3@internal@tbb@@KA_K_K@Z 0000000180002bd0 f i concurrent_vector.obj
 0001:00001be0       ?acquire_segment@helper@concurrent_vector_base_v3@internal@tbb@@SAAEAVsegment_t@234@AEAV234@_K1_N@Z 0000000180002be0 f i concurrent_vector.obj
 0001:00001c90       ??0helper@concurrent_vector_base_v3@internal@tbb@@QEAA@PEAVsegment_t@123@_K1111@Z 0000000180002c90 f i concurrent_vector.obj
 0001:00001cd0       ??1helper@concurrent_vector_base_v3@internal@tbb@@QEAA@XZ 0000000180002cd0 f i concurrent_vector.obj
 0001:00001cf0       ??0destroy_body@helper@concurrent_vector_base_v3@internal@tbb@@QEAA@P6AXPEAX_K@Z@Z 0000000180002cf0 f i concurrent_vector.obj
 0001:00001d00       ?extend_segment_table@helper@concurrent_vector_base_v3@internal@tbb@@SAXAEAV234@_K@Z 0000000180002d00 f   concurrent_vector.obj
 0001:00001ea0       ?enable_segment@helper@concurrent_vector_base_v3@internal@tbb@@SA_KAEAV234@_K1_N@Z 0000000180002ea0 f   concurrent_vector.obj
 0001:000020b0       ?cleanup@helper@concurrent_vector_base_v3@internal@tbb@@QEAAXXZ 00000001800030b0 f   concurrent_vector.obj
 0001:000023d0       ??1concurrent_vector_base_v3@internal@tbb@@IEAA@XZ 00000001800033d0 f   concurrent_vector.obj
 0001:00002400       ?internal_capacity@concurrent_vector_base_v3@internal@tbb@@IEBA_KXZ 0000000180003400 f   concurrent_vector.obj
 0001:00002440       ?internal_throw_exception@concurrent_vector_base_v3@internal@tbb@@IEBAX_K@Z 0000000180003440 f   concurrent_vector.obj
 0001:00002490       ?internal_reserve@concurrent_vector_base_v3@internal@tbb@@IEAAX_K00@Z 0000000180003490 f   concurrent_vector.obj
 0001:00002590       ?internal_copy@concurrent_vector_base_v3@internal@tbb@@IEAAXAEBV123@_KP6AXPEAXPEBX1@Z@Z 0000000180003590 f   concurrent_vector.obj
 0001:000026c0       ?internal_assign@concurrent_vector_base_v3@internal@tbb@@IEAAXAEBV123@_KP6AXPEAX1@ZP6AX2PEBX1@Z5@Z 00000001800036c0 f   concurrent_vector.obj
 0001:000028e0       ?internal_push_back@concurrent_vector_base_v3@internal@tbb@@IEAAPEAX_KAEA_K@Z 00000001800038e0 f   concurrent_vector.obj
 0001:00002990       ?internal_grow_to_at_least@concurrent_vector_base_v3@internal@tbb@@IEAAX_K0P6AXPEAXPEBX0@Z2@Z 0000000180003990 f   concurrent_vector.obj
 0001:000029a0       ?internal_grow_to_at_least_with_result@concurrent_vector_base_v3@internal@tbb@@IEAA_K_K0P6AXPEAXPEBX0@Z2@Z 00000001800039a0 f   concurrent_vector.obj
 0001:00002b20       ?internal_grow_by@concurrent_vector_base_v3@internal@tbb@@IEAA_K_K0P6AXPEAXPEBX0@Z2@Z 0000000180003b20 f   concurrent_vector.obj
 0001:00002b60       ?internal_grow@concurrent_vector_base_v3@internal@tbb@@IEAAX_K00P6AXPEAXPEBX0@Z2@Z 0000000180003b60 f   concurrent_vector.obj
 0001:00002db0       ?internal_resize@concurrent_vector_base_v3@internal@tbb@@IEAAX_K00PEBXP6AXPEAX0@ZP6AX210@Z@Z 0000000180003db0 f   concurrent_vector.obj
 0001:00003050       ?internal_clear@concurrent_vector_base_v3@internal@tbb@@IEAA_KP6AXPEAX_K@Z@Z 0000000180004050 f   concurrent_vector.obj
 0001:00003100       ?internal_compact@concurrent_vector_base_v3@internal@tbb@@IEAAPEAX_KPEAXP6AX10@ZP6AX1PEBX0@Z@Z 0000000180004100 f   concurrent_vector.obj
 0001:00003490       ?internal_swap@concurrent_vector_base_v3@internal@tbb@@IEAAXAEAV123@@Z 0000000180004490 f   concurrent_vector.obj
 0001:00003590       ??$apply@Udestroy_body@helper@concurrent_vector_base_v3@internal@tbb@@@helper@concurrent_vector_base_v3@internal@tbb@@QEAA_KAEBUdestroy_body@0123@@Z 0000000180004590 f i concurrent_vector.obj
 0001:00003800       ?init_dynamic_link_data@internal@tbb@@YAXXZ 0000000180004800 f   dynamic_link.obj
 0001:000038b0       ?dynamic_link@internal@tbb@@YA_NPEBDQEBUdynamic_link_descriptor@12@_KPEAPEAUHINSTANCE__@@H@Z 00000001800048b0 f   dynamic_link.obj
 0001:00008aa0       __itt_fini_ittlib          0000000180009aa0 f   itt_notify.obj
 0001:00008bd0       __itt_init_ittlib          0000000180009bd0 f   itt_notify.obj
 0001:00008f80       ?initialize_handler_pointers@internal@tbb@@YAXXZ 0000000180009f80 f   cache_aligned_allocator.obj
 0001:00009170       ?initialize_cache_aligned_allocator@internal@tbb@@YAXXZ 000000018000a170 f   cache_aligned_allocator.obj
 0001:000092b0       ?NFS_GetLineSize@internal@tbb@@YA_KXZ 000000018000a2b0 f   cache_aligned_allocator.obj
 0001:000092c0       ?NFS_Allocate@internal@tbb@@YAPEAX_K0PEAX@Z 000000018000a2c0 f   cache_aligned_allocator.obj
 0001:00009320       ?NFS_Free@internal@tbb@@YAXPEAX@Z 000000018000a320 f   cache_aligned_allocator.obj
 0001:00009390       ?allocate_closure_v3@internal@tbb@@YAPEAX_K@Z 000000018000a390 f   tbb_thread.obj
 0001:00009390       ?allocate_via_handler_v3@internal@tbb@@YAPEAX_K@Z 000000018000a390 f   cache_aligned_allocator.obj
 0001:000093c0       ?free_closure_v3@internal@tbb@@YAXPEAX@Z 000000018000a3c0 f   tbb_thread.obj
 0001:000093c0       ?deallocate_via_handler_v3@internal@tbb@@YAXPEAX@Z 000000018000a3c0 f   cache_aligned_allocator.obj
 0001:000093d0       ?is_malloc_used_v3@internal@tbb@@YA_NXZ 000000018000a3d0 f   cache_aligned_allocator.obj
 0001:00009410       ??0task_group_context@tbb@@QEAA@W4kind_type@01@_K@Z 000000018000a410 f i pipeline.obj
 0001:00009590       ??_Gempty_task@tbb@@UEAAPEAXI@Z 000000018000a590 f i arena.obj
 0001:00009590       ??_Etask@tbb@@UEAAPEAXI@Z  000000018000a590 f i * CIL library *:* CIL module *
 0001:00009590       ??_Gtask@tbb@@UEAAPEAXI@Z  000000018000a590 f i pipeline.obj
 0001:00009590       ??_Eempty_task@tbb@@UEAAPEAXI@Z 000000018000a590 f i * CIL library *:* CIL module *
 0001:000095c0       ??2@YAPEAX_KAEBVallocate_root_with_context_proxy@internal@tbb@@@Z 000000018000a5c0 f i pipeline.obj
 0001:000096c0       ??_Efilter@tbb@@UEAAPEAXI@Z 000000018000a6c0 f i * CIL library *:* CIL module *
 0001:000096c0       ??_Gfilter@tbb@@UEAAPEAXI@Z 000000018000a6c0 f i pipeline.obj
 0001:000097e0       ??0input_buffer@internal@tbb@@QEAA@_N0@Z 000000018000a7e0 f i pipeline.obj
 0001:00009860       ?put_token@input_buffer@internal@tbb@@QEAA_NAEAUtask_info@23@_N@Z 000000018000a860 f i pipeline.obj
 0001:000099c0       ?return_item@input_buffer@internal@tbb@@QEAA_NAEAUtask_info@23@_N@Z 000000018000a9c0 f i pipeline.obj
 0001:00009a90       ?grow@input_buffer@internal@tbb@@AEAAXK@Z 000000018000aa90 f   pipeline.obj
 0001:00009ba0       ??_Estage_task@internal@tbb@@UEAAPEAXI@Z 000000018000aba0 f i * CIL library *:* CIL module *
 0001:00009ba0       ??_Gstage_task@internal@tbb@@UEAAPEAXI@Z 000000018000aba0 f i pipeline.obj
 0001:00009c10       ?execute@stage_task@internal@tbb@@UEAAPEAVtask@3@XZ 000000018000ac10 f   pipeline.obj
 0001:0000a070       ?execute@pipeline_root_task@internal@tbb@@EEAAPEAVtask@3@XZ 000000018000b070 f i pipeline.obj
 0001:0000a3c0       ??_Epipeline_root_task@internal@tbb@@UEAAPEAXI@Z 000000018000b3c0 f i * CIL library *:* CIL module *
 0001:0000a3c0       ??_Gpipeline_root_task@internal@tbb@@UEAAPEAXI@Z 000000018000b3c0 f i pipeline.obj
 0001:0000a3f0       ??1pipeline_cleaner@internal@tbb@@QEAA@XZ 000000018000b3f0 f i pipeline.obj
 0001:0000a4c0       ??0pipeline@tbb@@QEAA@XZ   000000018000b4c0 f   pipeline.obj
 0001:0000a4f0       ??_Epipeline@tbb@@UEAAPEAXI@Z 000000018000b4f0 f i * CIL library *:* CIL module *
 0001:0000a4f0       ??_Gpipeline@tbb@@UEAAPEAXI@Z 000000018000b4f0 f i pipeline.obj
 0001:0000a5f0       ??1pipeline@tbb@@UEAA@XZ   000000018000b5f0 f   pipeline.obj
 0001:0000a6e0       ?clear@pipeline@tbb@@QEAAXXZ 000000018000b6e0 f   pipeline.obj
 0001:0000a7d0       ?add_filter@pipeline@tbb@@QEAAXAEAVfilter@2@@Z 000000018000b7d0 f   pipeline.obj
 0001:0000aa90       ?run@pipeline@tbb@@QEAAX_KAEAVtask_group_context@2@@Z 000000018000ba90 f   pipeline.obj
 0001:0000ac40       ?run@pipeline@tbb@@QEAAX_K@Z 000000018000bc40 f   pipeline.obj
 0001:0000acd0       ??1filter@tbb@@UEAA@XZ     000000018000bcd0 f   pipeline.obj
 0001:0000add0       ?set_end_of_input@filter@tbb@@IEAAXXZ 000000018000bdd0 f   pipeline.obj
 0001:0000ae00       ?process_item@thread_bound_filter@tbb@@QEAA?AW4result_type@12@XZ 000000018000be00 f   pipeline.obj
 0001:0000ae10       ?try_process_item@thread_bound_filter@tbb@@QEAA?AW4result_type@12@XZ 000000018000be10 f   pipeline.obj
 0001:0000ae20       ?internal_process_item@thread_bound_filter@tbb@@AEAA?AW4result_type@12@_N@Z 000000018000be20 f   pipeline.obj
 0001:0000b0e0       ??$note_done@Vstage_task@internal@tbb@@@input_buffer@internal@tbb@@QEAAXKAEAVstage_task@12@@Z 000000018000c0e0 f i pipeline.obj
 0001:0000b270       ?acquire@scoped_lock@queuing_mutex@tbb@@QEAAXAEAV23@@Z 000000018000c270 f   queuing_mutex.obj
 0001:0000b310       ?try_acquire@scoped_lock@queuing_mutex@tbb@@QEAA_NAEAV23@@Z 000000018000c310 f   queuing_mutex.obj
 0001:0000b350       ?release@scoped_lock@queuing_mutex@tbb@@QEAAXXZ 000000018000c350 f   queuing_mutex.obj
 0001:0000b3f0       ?internal_construct@queuing_mutex@tbb@@QEAAXXZ 000000018000c3f0 f   queuing_mutex.obj
 0001:0000b420       ?acquire@scoped_lock@queuing_rw_mutex@tbb@@QEAAXAEAV23@_N@Z 000000018000c420 f   queuing_rw_mutex.obj
 0001:0000b5e0       ?try_acquire@scoped_lock@queuing_rw_mutex@tbb@@QEAA_NAEAV23@_N@Z 000000018000c5e0 f   queuing_rw_mutex.obj
 0001:0000b640       ?release@scoped_lock@queuing_rw_mutex@tbb@@QEAAXXZ 000000018000c640 f   queuing_rw_mutex.obj
 0001:0000b990       ?downgrade_to_reader@scoped_lock@queuing_rw_mutex@tbb@@QEAA_NXZ 000000018000c990 f   queuing_rw_mutex.obj
 0001:0000ba60       ?upgrade_to_writer@scoped_lock@queuing_rw_mutex@tbb@@QEAA_NXZ 000000018000ca60 f   queuing_rw_mutex.obj
 0001:0000bdd0       ?internal_construct@queuing_rw_mutex@tbb@@QEAAXXZ 000000018000cdd0 f   queuing_rw_mutex.obj
 0001:0000be00       ??1scoped_lock_read@reader_writer_lock@interface5@tbb@@QEAA@XZ 000000018000ce00 f i reader_writer_lock.obj
 0001:0000be60       ?fetch_and_or@interface5@tbb@@YA_KAEAU?$atomic@_K@2@_K@Z 000000018000ce60 f i reader_writer_lock.obj
 0001:0000bee0       ?internal_construct@reader_writer_lock@interface5@tbb@@AEAAXXZ 000000018000cee0 f   reader_writer_lock.obj
 0001:0000bf00       ?lock@reader_writer_lock@interface5@tbb@@QEAAXXZ 000000018000cf00 f   reader_writer_lock.obj
 0001:0000bf80       ?try_lock@reader_writer_lock@interface5@tbb@@QEAA_NXZ 000000018000cf80 f   reader_writer_lock.obj
 0001:0000bff0       ?start_write@reader_writer_lock@interface5@tbb@@AEAA_NPEAVscoped_lock@123@@Z 000000018000cff0 f   reader_writer_lock.obj
 0001:0000c180       ?set_next_writer@reader_writer_lock@interface5@tbb@@AEAAXPEAVscoped_lock@123@@Z 000000018000d180 f   reader_writer_lock.obj
 0001:0000c270       ?lock_read@reader_writer_lock@interface5@tbb@@QEAAXXZ 000000018000d270 f   reader_writer_lock.obj
 0001:0000c2f0       ?try_lock_read@reader_writer_lock@interface5@tbb@@QEAA_NXZ 000000018000d2f0 f   reader_writer_lock.obj
 0001:0000c350       ?start_read@reader_writer_lock@interface5@tbb@@AEAAXPEAVscoped_lock_read@123@@Z 000000018000d350 f   reader_writer_lock.obj
 0001:0000c440       ?unlock@reader_writer_lock@interface5@tbb@@QEAAXXZ 000000018000d440 f   reader_writer_lock.obj
 0001:0000c4c0       ?end_write@reader_writer_lock@interface5@tbb@@AEAAXPEAVscoped_lock@123@@Z 000000018000d4c0 f   reader_writer_lock.obj
 0001:0000c610       ?internal_construct@scoped_lock@reader_writer_lock@interface5@tbb@@AEAAXAEAV234@@Z 000000018000d610 f   reader_writer_lock.obj
 0001:0000c670       ?internal_construct@scoped_lock_read@reader_writer_lock@interface5@tbb@@AEAAXAEAV234@@Z 000000018000d670 f   reader_writer_lock.obj
 0001:0000c6d0       ?internal_destroy@scoped_lock@reader_writer_lock@interface5@tbb@@AEAAXXZ 000000018000d6d0 f   reader_writer_lock.obj
 0001:0000c710       ?internal_destroy@scoped_lock_read@reader_writer_lock@interface5@tbb@@AEAAXXZ 000000018000d710 f   reader_writer_lock.obj
 0001:0000c770       ?internal_acquire_writer@spin_rw_mutex@tbb@@CA_NPEAV12@@Z 000000018000d770 f   spin_rw_mutex_v2.obj
 0001:0000c770       ?internal_acquire_writer@spin_rw_mutex_v3@tbb@@AEAA_NXZ 000000018000d770 f   spin_rw_mutex.obj
 0001:0000c830       ?internal_release_writer@spin_rw_mutex_v3@tbb@@AEAAXXZ 000000018000d830 f   spin_rw_mutex.obj
 0001:0000c860       ?internal_acquire_reader@spin_rw_mutex_v3@tbb@@AEAAXXZ 000000018000d860 f   spin_rw_mutex.obj
 0001:0000c8e0       ?internal_upgrade@spin_rw_mutex_v3@tbb@@AEAA_NXZ 000000018000d8e0 f   spin_rw_mutex.obj
 0001:0000ca00       ?internal_downgrade@spin_rw_mutex_v3@tbb@@AEAAXXZ 000000018000da00 f   spin_rw_mutex.obj
 0001:0000ca30       ?internal_release_reader@spin_rw_mutex@tbb@@CAXPEAV12@@Z 000000018000da30 f   spin_rw_mutex_v2.obj
 0001:0000ca30       ?internal_release_reader@spin_rw_mutex_v3@tbb@@AEAAXXZ 000000018000da30 f   spin_rw_mutex.obj
 0001:0000ca60       ?internal_try_acquire_writer@spin_rw_mutex@tbb@@CA_NPEAV12@@Z 000000018000da60 f   spin_rw_mutex_v2.obj
 0001:0000ca60       ?internal_try_acquire_writer@spin_rw_mutex_v3@tbb@@AEAA_NXZ 000000018000da60 f   spin_rw_mutex.obj
 0001:0000cad0       ?internal_try_acquire_reader@spin_rw_mutex_v3@tbb@@AEAA_NXZ 000000018000dad0 f   spin_rw_mutex.obj
 0001:0000cb10       ?internal_construct@spin_rw_mutex_v3@tbb@@AEAAXXZ 000000018000db10 f   spin_rw_mutex.obj
 0001:0000cb40       ?acquire@scoped_lock@spin_rw_mutex_v3@tbb@@QEAAXAEAV23@_N@Z 000000018000db40 f i x86_rtm_rw_mutex.obj
 0001:0000cbf0       ?internal_release@x86_rtm_rw_mutex@internal@interface8@tbb@@AEAAXAEAVscoped_lock@1234@@Z 000000018000dbf0 f   x86_rtm_rw_mutex.obj
 0001:0000cc50       ?internal_acquire_writer@x86_rtm_rw_mutex@internal@interface8@tbb@@AEAAXAEAVscoped_lock@1234@_N@Z 000000018000dc50 f   x86_rtm_rw_mutex.obj
 0001:0000cd30       ?internal_acquire_reader@x86_rtm_rw_mutex@internal@interface8@tbb@@AEAAXAEAVscoped_lock@1234@_N@Z 000000018000dd30 f   x86_rtm_rw_mutex.obj
 0001:0000ce60       ?internal_upgrade@x86_rtm_rw_mutex@internal@interface8@tbb@@AEAA_NAEAVscoped_lock@1234@@Z 000000018000de60 f   x86_rtm_rw_mutex.obj
 0001:0000d0a0       ?internal_downgrade@x86_rtm_rw_mutex@internal@interface8@tbb@@AEAA_NAEAVscoped_lock@1234@@Z 000000018000e0a0 f   x86_rtm_rw_mutex.obj
 0001:0000d0e0       ?internal_try_acquire_writer@x86_rtm_rw_mutex@internal@interface8@tbb@@AEAA_NAEAVscoped_lock@1234@@Z 000000018000e0e0 f   x86_rtm_rw_mutex.obj
 0001:0000d1d0       ?internal_construct@x86_rtm_rw_mutex@internal@interface8@tbb@@AEAAXXZ 000000018000e1d0 f   x86_rtm_rw_mutex.obj
 0001:0000d200       ?internal_acquire@scoped_lock@spin_mutex@tbb@@AEAAXAEAV23@@Z 000000018000e200 f   spin_mutex.obj
 0001:0000d2a0       ?internal_release@scoped_lock@spin_mutex@tbb@@AEAAXXZ 000000018000e2a0 f   spin_mutex.obj
 0001:0000d2d0       ?internal_try_acquire@scoped_lock@spin_mutex@tbb@@AEAA_NAEAV23@@Z 000000018000e2d0 f   spin_mutex.obj
 0001:0000d310       ?internal_construct@spin_mutex@tbb@@QEAAXXZ 000000018000e310 f   spin_mutex.obj
 0001:0000d340       ?internal_construct@critical_section_v4@internal@tbb@@QEAAXXZ 000000018000e340 f   critical_section.obj
 0001:0000d370       ?internal_acquire@scoped_lock@mutex@tbb@@AEAAXAEAV23@@Z 000000018000e370 f   mutex.obj
 0001:0000d3d0       ?internal_release@scoped_lock@mutex@tbb@@AEAAXXZ 000000018000e3d0 f   mutex.obj
 0001:0000d410       ?internal_try_acquire@scoped_lock@mutex@tbb@@AEAA_NAEAV23@@Z 000000018000e410 f   mutex.obj
 0001:0000d460       ?internal_construct@mutex@tbb@@AEAAXXZ 000000018000e460 f   mutex.obj
 0001:0000d4b0       ?internal_destroy@mutex@tbb@@AEAAXXZ 000000018000e4b0 f   mutex.obj
 0001:0000d4b0       ?internal_destroy@recursive_mutex@tbb@@AEAAXXZ 000000018000e4b0 f   recursive_mutex.obj
 0001:0000d4f0       ?internal_acquire@scoped_lock@recursive_mutex@tbb@@AEAAXAEAV23@@Z 000000018000e4f0 f   recursive_mutex.obj
 0001:0000d530       ?internal_release@scoped_lock@recursive_mutex@tbb@@AEAAXXZ 000000018000e530 f   recursive_mutex.obj
 0001:0000d560       ?internal_try_acquire@scoped_lock@recursive_mutex@tbb@@AEAA_NAEAV23@@Z 000000018000e560 f   recursive_mutex.obj
 0001:0000d5a0       ?internal_construct@recursive_mutex@tbb@@AEAAXXZ 000000018000e5a0 f   recursive_mutex.obj
 0001:0000d5f0       ?init_condvar_using_event@internal@tbb@@YAXPEAUcondition_variable_using_event@1interface5@2@@Z 000000018000e5f0 f   condition_variable.obj
 0001:0000d630       ?sleep_condition_variable_cs_using_event@internal@tbb@@YAHPEAUcondition_variable_using_event@1interface5@2@PEAU_RTL_CRITICAL_SECTION@@K@Z 000000018000e630 f   condition_variable.obj
 0001:0000d740       ?wake_condition_variable_using_event@internal@tbb@@YAXPEAUcondition_variable_using_event@1interface5@2@@Z 000000018000e740 f   condition_variable.obj
 0001:0000d790       ?wake_all_condition_variable_using_event@internal@tbb@@YAXPEAUcondition_variable_using_event@1interface5@2@@Z 000000018000e790 f   condition_variable.obj
 0001:0000d7e0       ?destroy_condvar_using_event@internal@tbb@@YAXPEAUcondition_variable_using_event@1interface5@2@@Z 000000018000e7e0 f   condition_variable.obj
 0001:0000d880       ?init_condvar_module@internal@tbb@@YAXXZ 000000018000e880 f   condition_variable.obj
 0001:0000da30       ?internal_initialize_condition_variable@internal@interface5@tbb@@YAXAEATcondvar_impl_t@123@@Z 000000018000ea30 f   condition_variable.obj
 0001:0000dad0       ?internal_destroy_condition_variable@internal@interface5@tbb@@YAXAEATcondvar_impl_t@123@@Z 000000018000ead0 f   condition_variable.obj
 0001:0000dae0       ?internal_condition_variable_notify_one@internal@interface5@tbb@@YAXAEATcondvar_impl_t@123@@Z 000000018000eae0 f   condition_variable.obj
 0001:0000daf0       ?internal_condition_variable_notify_all@internal@interface5@tbb@@YAXAEATcondvar_impl_t@123@@Z 000000018000eaf0 f   condition_variable.obj
 0001:0000db00       ?internal_condition_variable_wait@internal@interface5@tbb@@YA_NAEATcondvar_impl_t@123@PEAVmutex@3@PEBVinterval_t@tick_count@3@@Z 000000018000eb00 f   condition_variable.obj
 0001:0000db90       ?default_num_threads@governor@internal@tbb@@SAIXZ 000000018000eb90 f i tbb_thread.obj
 0001:0000dc60       ?join@tbb_thread_v3@internal@tbb@@QEAAXXZ 000000018000ec60 f   tbb_thread.obj
 0001:0000dd00       ?detach@tbb_thread_v3@internal@tbb@@QEAAXXZ 000000018000ed00 f   tbb_thread.obj
 0001:0000dd50       ?internal_start@tbb_thread_v3@internal@tbb@@AEAAXP6AIPEAX@Z0@Z 000000018000ed50 f   tbb_thread.obj
 0001:0000ddd0       ?hardware_concurrency@tbb_thread_v3@internal@tbb@@SAIXZ 000000018000edd0 f   tbb_thread.obj
 0001:0000dde0       ?thread_get_id_v3@internal@tbb@@YA?AVid@tbb_thread_v3@12@XZ 000000018000ede0 f   tbb_thread.obj
 0001:0000de00       ?move_v3@internal@tbb@@YAXAEAVtbb_thread_v3@12@0@Z 000000018000ee00 f   tbb_thread.obj
 0001:0000de60       ?yield@private_server@rml@internal@tbb@@UEAAXXZ 000000018000ee60 f   private_server.obj
 0001:0000de60       ?thread_yield_v3@internal@tbb@@YAXXZ 000000018000ee60 f   tbb_thread.obj
 0001:0000de70       ?thread_sleep_v3@internal@tbb@@YAXAEBVinterval_t@tick_count@2@@Z 000000018000ee70 f   tbb_thread.obj
 0001:0000dfa0       ?init@thread_context@concurrent_monitor@internal@tbb@@AEAAXXZ 000000018000efa0 f   concurrent_monitor.obj
 0001:0000dfd0       ?prepare_wait@concurrent_monitor@internal@tbb@@QEAAXAEAVthread_context@123@_K@Z 000000018000efd0 f   concurrent_monitor.obj
 0001:0000e0b0       __local_stdio_printf_options 000000018000f0b0 f i private_server.obj
 0001:0000e0c0       fprintf                    000000018000f0c0 f i private_server.obj
 0001:0000e110       ?launch@thread_monitor@internal@rml@@SAPEAXP6AIPEAX@Z0_KPEB_K@Z 000000018000f110 f i private_server.obj
 0001:0000e2c0       __scrt_stub_for_is_c_termination_complete 000000018000f2c0 f i MSVCRT:ucrt_stubs.obj
 0001:0000e2c0       ?version@market@internal@tbb@@EEBAIXZ 000000018000f2c0 f i market.obj
 0001:0000e2c0       ?execute@empty_task@tbb@@EEAAPEAVtask@2@XZ 000000018000f2c0 f i arena.obj
 0001:0000e2c0       _is_c_termination_complete 000000018000f2c0 f i MSVCRT:ucrt_stubs.obj
 0001:0000e2c0       ?version@private_server@rml@internal@tbb@@UEBAIXZ 000000018000f2c0 f i private_server.obj
 0001:0000e2d0       ?request_close_connection@private_server@rml@internal@tbb@@UEAAX_N@Z 000000018000f2d0 f i private_server.obj
 0001:0000e430       ?default_concurrency@private_server@rml@internal@tbb@@UEBAIXZ 000000018000f430 f i private_server.obj
 0001:0000e440       ?thread_routine@private_worker@rml@internal@tbb@@CAIPEAX@Z 000000018000f440 f   private_server.obj
 0001:0000e4b0       ?run@private_worker@rml@internal@tbb@@AEAAXXZ 000000018000f4b0 f   private_server.obj
 0001:0000e670       ??0private_server@rml@internal@tbb@@QEAA@AEAVtbb_client@123@@Z 000000018000f670 f   private_server.obj
 0001:0000e7e0       ??_Eprivate_server@rml@internal@tbb@@EEAAPEAXI@Z 000000018000f7e0 f i * CIL library *:* CIL module *
 0001:0000e7e0       ??_Gprivate_server@rml@internal@tbb@@EEAAPEAXI@Z 000000018000f7e0 f i private_server.obj
 0001:0000e860       ?wake_some@private_server@rml@internal@tbb@@AEAAXH@Z 000000018000f860 f   private_server.obj
 0001:0000ea10       ?adjust_job_count_estimate@private_server@rml@internal@tbb@@UEAAXH@Z 000000018000fa10 f   private_server.obj
 0001:0000ea30       ??0exception@std@@QEAA@AEBV01@@Z 000000018000fa30 f i tbb_misc.obj
 0001:0000ea70       ?what@exception@std@@UEBAPEBDXZ 000000018000fa70 f i tbb_misc.obj
 0001:0000ea90       ??_Gbad_last_alloc@tbb@@UEAAPEAXI@Z 000000018000fa90 f i tbb_misc.obj
 0001:0000ea90       ??_Glength_error@std@@UEAAPEAXI@Z 000000018000fa90 f i tbb_misc.obj
 0001:0000ea90       ??_Gexception@std@@UEAAPEAXI@Z 000000018000fa90 f i tbb_misc.obj
 0001:0000ea90       ??_Ginvalid_argument@std@@UEAAPEAXI@Z 000000018000fa90 f i tbb_misc.obj
 0001:0000ea90       ??_Guser_abort@tbb@@UEAAPEAXI@Z 000000018000fa90 f i tbb_misc.obj
 0001:0000ea90       ??_Gimproper_lock@tbb@@UEAAPEAXI@Z 000000018000fa90 f i tbb_misc.obj
 0001:0000ea90       ??_Euser_abort@tbb@@UEAAPEAXI@Z 000000018000fa90 f i * CIL library *:* CIL module *
 0001:0000ea90       ??_Eimproper_lock@tbb@@UEAAPEAXI@Z 000000018000fa90 f i * CIL library *:* CIL module *
 0001:0000ea90       ??_Ebad_last_alloc@tbb@@UEAAPEAXI@Z 000000018000fa90 f i * CIL library *:* CIL module *
 0001:0000ea90       ??_Ginvalid_multiple_scheduling@tbb@@UEAAPEAXI@Z 000000018000fa90 f i tbb_misc.obj
 0001:0000ea90       ??_Gbad_alloc@std@@UEAAPEAXI@Z 000000018000fa90 f i tbb_misc.obj
 0001:0000ea90       ??_Gmissing_wait@tbb@@UEAAPEAXI@Z 000000018000fa90 f i tbb_misc.obj
 0001:0000ea90       ??_Emissing_wait@tbb@@UEAAPEAXI@Z 000000018000fa90 f i * CIL library *:* CIL module *
 0001:0000ea90       ??_Erange_error@std@@UEAAPEAXI@Z 000000018000fa90 f i * CIL library *:* CIL module *
 0001:0000ea90       ??_Einvalid_argument@std@@UEAAPEAXI@Z 000000018000fa90 f i * CIL library *:* CIL module *
 0001:0000ea90       ??_Eexception@std@@UEAAPEAXI@Z 000000018000fa90 f i * CIL library *:* CIL module *
 0001:0000ea90       ??_Glogic_error@std@@UEAAPEAXI@Z 000000018000fa90 f i tbb_misc.obj
 0001:0000ea90       ??_Einvalid_multiple_scheduling@tbb@@UEAAPEAXI@Z 000000018000fa90 f i * CIL library *:* CIL module *
 0001:0000ea90       ??_Gout_of_range@std@@UEAAPEAXI@Z 000000018000fa90 f i tbb_misc.obj
 0001:0000ea90       ??_Elogic_error@std@@UEAAPEAXI@Z 000000018000fa90 f i * CIL library *:* CIL module *
 0001:0000ea90       ??_Gruntime_error@std@@UEAAPEAXI@Z 000000018000fa90 f i tbb_misc.obj
 0001:0000ea90       ??_Eout_of_range@std@@UEAAPEAXI@Z 000000018000fa90 f i * CIL library *:* CIL module *
 0001:0000ea90       ??_Grange_error@std@@UEAAPEAXI@Z 000000018000fa90 f i tbb_misc.obj
 0001:0000ea90       ??_Ebad_alloc@std@@UEAAPEAXI@Z 000000018000fa90 f i * CIL library *:* CIL module *
 0001:0000ea90       ??_Eruntime_error@std@@UEAAPEAXI@Z 000000018000fa90 f i * CIL library *:* CIL module *
 0001:0000ea90       ??_Elength_error@std@@UEAAPEAXI@Z 000000018000fa90 f i * CIL library *:* CIL module *
 0001:0000eae0       ??0bad_alloc@std@@QEAA@XZ  000000018000fae0 f i tbb_misc.obj
 0001:0000eb10       ??1bad_alloc@std@@UEAA@XZ  000000018000fb10 f i tbb_misc.obj
 0001:0000eb10       ??1improper_lock@tbb@@UEAA@XZ 000000018000fb10 f i tbb_misc.obj
 0001:0000eb10       ??1user_abort@tbb@@UEAA@XZ 000000018000fb10 f i tbb_misc.obj
 0001:0000eb10       ??1range_error@std@@UEAA@XZ 000000018000fb10 f i tbb_misc.obj
 0001:0000eb10       ??1bad_last_alloc@tbb@@UEAA@XZ 000000018000fb10 f i tbb_misc.obj
 0001:0000eb10       ??1runtime_error@std@@UEAA@XZ 000000018000fb10 f i tbb_misc.obj
 0001:0000eb10       ??1out_of_range@std@@UEAA@XZ 000000018000fb10 f i tbb_misc.obj
 0001:0000eb10       ??1missing_wait@tbb@@UEAA@XZ 000000018000fb10 f i tbb_misc.obj
 0001:0000eb10       ??1invalid_multiple_scheduling@tbb@@UEAA@XZ 000000018000fb10 f i tbb_misc.obj
 0001:0000eb10       ??1length_error@std@@UEAA@XZ 000000018000fb10 f i tbb_misc.obj
 0001:0000eb10       ??1invalid_argument@std@@UEAA@XZ 000000018000fb10 f i tbb_misc.obj
 0001:0000eb30       ??0bad_alloc@std@@QEAA@AEBV01@@Z 000000018000fb30 f i tbb_misc.obj
 0001:0000eb70       _snprintf                  000000018000fb70 f i tbb_misc.obj
 0001:0000ebd0       ?set_assertion_handler@tbb@@YAP6AXPEBDH00@ZP6AX0H00@Z@Z 000000018000fbd0 f   tbb_misc.obj
 0001:0000ebe0       ?assertion_failure@tbb@@YAXPEBDH00@Z 000000018000fbe0 f   tbb_misc.obj
 0001:0000eca0       ?runtime_warning@internal@tbb@@YAXPEBDZZ 000000018000fca0 f   tbb_misc.obj
 0001:0000ed60       ??0invalid_argument@std@@QEAA@PEBD@Z 000000018000fd60 f i tbb_misc.obj
 0001:0000edb0       ??0length_error@std@@QEAA@PEBD@Z 000000018000fdb0 f i tbb_misc.obj
 0001:0000ee00       ??0out_of_range@std@@QEAA@PEBD@Z 000000018000fe00 f i tbb_misc.obj
 0001:0000ee50       ??0runtime_error@std@@QEAA@PEBD@Z 000000018000fe50 f i tbb_misc.obj
 0001:0000eea0       ??0range_error@std@@QEAA@PEBD@Z 000000018000fea0 f i tbb_misc.obj
 0001:0000eef0       ??0range_error@std@@QEAA@AEBV01@@Z 000000018000fef0 f i tbb_misc.obj
 0001:0000ef30       ??0runtime_error@std@@QEAA@AEBV01@@Z 000000018000ff30 f i tbb_misc.obj
 0001:0000ef70       ?what@bad_last_alloc@tbb@@UEBAPEBDXZ 000000018000ff70 f   tbb_misc.obj
 0001:0000ef80       ?what@improper_lock@tbb@@UEBAPEBDXZ 000000018000ff80 f   tbb_misc.obj
 0001:0000ef90       ?what@user_abort@tbb@@UEBAPEBDXZ 000000018000ff90 f   tbb_misc.obj
 0001:0000efa0       ?what@invalid_multiple_scheduling@tbb@@UEBAPEBDXZ 000000018000ffa0 f   tbb_misc.obj
 0001:0000efb0       ?what@missing_wait@tbb@@UEBAPEBDXZ 000000018000ffb0 f   tbb_misc.obj
 0001:0000efc0       ?handle_perror@internal@tbb@@YAXHPEBD@Z 000000018000ffc0 f   tbb_misc.obj
 0001:0000f030       ?handle_win_error@internal@tbb@@YAXH@Z 0000000180010030 f   tbb_misc.obj
 0001:0000f0a0       ?throw_bad_last_alloc_exception_v4@internal@tbb@@YAXXZ 00000001800100a0 f   tbb_misc.obj
 0001:0000f0d0       ?throw_exception_v4@internal@tbb@@YAXW4exception_id@12@@Z 00000001800100d0 f   tbb_misc.obj
 0001:0000f400       ??0bad_last_alloc@tbb@@QEAA@XZ 0000000180010400 f i tbb_misc.obj
 0001:0000f430       ??0missing_wait@tbb@@QEAA@XZ 0000000180010430 f i tbb_misc.obj
 0001:0000f450       ??0invalid_multiple_scheduling@tbb@@QEAA@XZ 0000000180010450 f i tbb_misc.obj
 0001:0000f470       ??0improper_lock@tbb@@QEAA@XZ 0000000180010470 f i tbb_misc.obj
 0001:0000f490       ??0user_abort@tbb@@QEAA@XZ 0000000180010490 f i tbb_misc.obj
 0001:0000f4b0       ??0bad_last_alloc@tbb@@QEAA@AEBV01@@Z 00000001800104b0 f i tbb_misc.obj
 0001:0000f4f0       ??0invalid_argument@std@@QEAA@AEBV01@@Z 00000001800104f0 f i tbb_misc.obj
 0001:0000f530       ??0logic_error@std@@QEAA@AEBV01@@Z 0000000180010530 f i tbb_misc.obj
 0001:0000f570       ??0out_of_range@std@@QEAA@AEBV01@@Z 0000000180010570 f i tbb_misc.obj
 0001:0000f5b0       ??0missing_wait@tbb@@QEAA@AEBV01@@Z 00000001800105b0 f i tbb_misc.obj
 0001:0000f5f0       ??0invalid_multiple_scheduling@tbb@@QEAA@AEBV01@@Z 00000001800105f0 f i tbb_misc.obj
 0001:0000f630       ??0improper_lock@tbb@@QEAA@AEBV01@@Z 0000000180010630 f i tbb_misc.obj
 0001:0000f670       ??0length_error@std@@QEAA@AEBV01@@Z 0000000180010670 f i tbb_misc.obj
 0001:0000f6b0       ??0user_abort@tbb@@QEAA@AEBV01@@Z 00000001800106b0 f i tbb_misc.obj
 0001:0000f6f0       ?PrintExtraVersionInfo@internal@tbb@@YAXPEBD0ZZ 00000001800106f0 f   tbb_misc.obj
 0001:0000f7c0       ?PrintRMLVersionInfo@internal@tbb@@YAXPEAXPEBD@Z 00000001800107c0 f   tbb_misc.obj
 0001:0000f7d0       TBB_runtime_interface_version 00000001800107d0 f   tbb_misc.obj
 0001:0000fb30       ?allocate@allocate_root_proxy@internal@tbb@@SAAEAVtask@3@_K@Z 0000000180010b30 f   task.obj
 0001:0000fbb0       ?free@allocate_root_proxy@internal@tbb@@SAXAEAVtask@3@@Z 0000000180010bb0 f   task.obj
 0001:0000fc20       ?allocate@allocate_root_with_context_proxy@internal@tbb@@QEBAAEAVtask@3@_K@Z 0000000180010c20 f   task.obj
 0001:0000fd20       ?free@allocate_root_with_context_proxy@internal@tbb@@QEBAXAEAVtask@3@@Z 0000000180010d20 f   task.obj
 0001:0000fd20       ?free@allocate_child_proxy@internal@tbb@@QEBAXAEAVtask@3@@Z 0000000180010d20 f   task.obj
 0001:0000fd90       ?allocate@allocate_continuation_proxy@internal@tbb@@QEBAAEAVtask@3@_K@Z 0000000180010d90 f   task.obj
 0001:0000fdf0       ?free@allocate_continuation_proxy@internal@tbb@@QEBAXAEAVtask@3@@Z 0000000180010df0 f   task.obj
 0001:0000fe70       ?allocate@allocate_child_proxy@internal@tbb@@QEBAAEAVtask@3@_K@Z 0000000180010e70 f   task.obj
 0001:0000fed0       ?allocate@allocate_additional_child_of_proxy@internal@tbb@@QEBAAEAVtask@3@_K@Z 0000000180010ed0 f   task.obj
 0001:0000ff40       ?free@allocate_additional_child_of_proxy@internal@tbb@@QEBAXAEAVtask@3@@Z 0000000180010f40 f   task.obj
 0001:00010000       ?get_initial_auto_partitioner_divisor@internal@tbb@@YA_KXZ 0000000180011000 f   task.obj
 0001:00010050       ?resize@affinity_partitioner_base_v3@internal@tbb@@AEAAXI@Z 0000000180011050 f   task.obj
 0001:00010150       ?internal_set_ref_count@task@tbb@@AEAAXH@Z 0000000180011150 f   task.obj
 0001:00010190       ?internal_decrement_ref_count@task@tbb@@AEAA_JXZ 0000000180011190 f   task.obj
 0001:000101f0       ?self@task@tbb@@SAAEAV12@XZ 00000001800111f0 f   task.obj
 0001:00010230       __acrt_uninitialize_critical 0000000180011230 f   MSVCRT:ucrt_stubs.obj
 0001:00010230       __acrt_thread_detach       0000000180011230 f   MSVCRT:ucrt_stubs.obj
 0001:00010230       ?is_owned_by_current_thread@task@tbb@@QEBA_NXZ 0000000180011230 f   task.obj
 0001:00010230       __vcrt_thread_detach       0000000180011230 f   MSVCRT:ucrt_stubs.obj
 0001:00010230       __vcrt_uninitialize_critical 0000000180011230 f   MSVCRT:ucrt_stubs.obj
 0001:00010230       __scrt_stub_for_acrt_thread_attach 0000000180011230 f   MSVCRT:ucrt_stubs.obj
 0001:00010230       __vcrt_thread_attach       0000000180011230 f   MSVCRT:ucrt_stubs.obj
 0001:00010230       __acrt_thread_attach       0000000180011230 f   MSVCRT:ucrt_stubs.obj
 0001:00010230       __acrt_initialize          0000000180011230 f   MSVCRT:ucrt_stubs.obj
 0001:00010230       __acrt_uninitialize        0000000180011230 f   MSVCRT:ucrt_stubs.obj
 0001:00010230       __scrt_stub_for_acrt_uninitialize 0000000180011230 f   MSVCRT:ucrt_stubs.obj
 0001:00010230       __vcrt_initialize          0000000180011230 f   MSVCRT:ucrt_stubs.obj
 0001:00010230       __scrt_stub_for_acrt_uninitialize_critical 0000000180011230 f   MSVCRT:ucrt_stubs.obj
 0001:00010230       __vcrt_uninitialize        0000000180011230 f   MSVCRT:ucrt_stubs.obj
 0001:00010230       __scrt_stub_for_acrt_initialize 0000000180011230 f   MSVCRT:ucrt_stubs.obj
 0001:00010230       __scrt_stub_for_acrt_thread_detach 0000000180011230 f   MSVCRT:ucrt_stubs.obj
 0001:00010240       ?destroy@task_base@internal@interface5@tbb@@SAXAEAVtask@4@@Z 0000000180011240 f   task.obj
 0001:000103b0       ?spawn_and_wait_for_all@task@tbb@@QEAAXAEAVtask_list@2@@Z 00000001800113b0 f   task.obj
 0001:00010450       ?change_group@task@tbb@@QEAAXAEAVtask_group_context@2@@Z 0000000180011450 f   task.obj
 0001:00010520       ??1exception_ptr@std@@QEAA@XZ 0000000180011520 f i task_group_context.obj
 0001:00010530       ??0exception_ptr@std@@QEAA@AEBV01@@Z 0000000180011530 f i task_group_context.obj
 0001:00010550       ??0captured_exception@tbb@@QEAA@AEBV01@@Z 0000000180011550 f i task_group_context.obj
 0001:000105d0       ?throw_self@captured_exception@tbb@@UEAAXXZ 00000001800115d0 f i task_group_context.obj
 0001:00010600       ??_Gcaptured_exception@tbb@@UEAAPEAXI@Z 0000000180011600 f i task_group_context.obj
 0001:00010600       ??_Ecaptured_exception@tbb@@UEAAPEAXI@Z 0000000180011600 f i * CIL library *:* CIL module *
 0001:00010690       ??0tbb_exception@tbb@@QEAA@AEBV01@@Z 0000000180011690 f i task_group_context.obj
 0001:000106d0       ??_Etbb_exception@tbb@@UEAAPEAXI@Z 00000001800116d0 f i * CIL library *:* CIL module *
 0001:000106d0       ??_Gtbb_exception@tbb@@UEAAPEAXI@Z 00000001800116d0 f i task_group_context.obj
 0001:00010740       ?lock@spin_mutex@tbb@@QEAAXXZ 0000000180011740 f i task_group_context.obj
 0001:000107a0       ?duplicate_string@tbb@@YAPEADPEBD@Z 00000001800117a0 f i task_group_context.obj
 0001:00010810       ??1captured_exception@tbb@@UEAA@XZ 0000000180011810 f   task_group_context.obj
 0001:00010860       ?set@captured_exception@tbb@@QEAAXPEBD0@Z 0000000180011860 f   task_group_context.obj
 0001:000108a0       ?clear@captured_exception@tbb@@QEAAXXZ 00000001800118a0 f   task_group_context.obj
 0001:000108e0       ?move@captured_exception@tbb@@UEAAPEAV12@XZ 00000001800118e0 f   task_group_context.obj
 0001:00010960       ?destroy@captured_exception@tbb@@UEAAXXZ 0000000180011960 f   task_group_context.obj
 0001:000109c0       ?name@captured_exception@tbb@@UEBAPEBDXZ 00000001800119c0 f   task_group_context.obj
 0001:000109d0       ?what@captured_exception@tbb@@UEBAPEBDXZ 00000001800119d0 f   task_group_context.obj
 0001:000109e0       ?allocate@tbb_exception_ptr@internal@tbb@@SAPEAV123@AEAVcaptured_exception@3@@Z 00000001800119e0 f   task_group_context.obj
 0001:00010b10       ??1task_group_context@tbb@@QEAA@XZ 0000000180011b10 f   task_group_context.obj
 0001:00010e00       ?init@task_group_context@tbb@@IEAAXXZ 0000000180011e00 f   task_group_context.obj
 0001:00010fb0       ?register_with@task_group_context@tbb@@QEAAXPEAVgeneric_scheduler@internal@2@@Z 0000000180011fb0 f   task_group_context.obj
 0001:000110e0       ?bind_to@task_group_context@tbb@@QEAAXPEAVgeneric_scheduler@internal@2@@Z 00000001800120e0 f   task_group_context.obj
 0001:00011240       ?cancel_group_execution@task_group_context@tbb@@QEAA_NXZ 0000000180012240 f   task_group_context.obj
 0001:00011390       ?is_group_execution_cancelled@task_group_context@tbb@@QEBA_NXZ 0000000180012390 f   task_group_context.obj
 0001:000113a0       ?reset@task_group_context@tbb@@QEAAXXZ 00000001800123a0 f   task_group_context.obj
 0001:00011400       ?capture_fp_settings@task_group_context@tbb@@QEAAXXZ 0000000180012400 f   task_group_context.obj
 0001:00011440       ?register_pending_exception@task_group_context@tbb@@QEAAXXZ 0000000180012440 f   task_group_context.obj
 0001:00011470       ?set_priority@task_group_context@tbb@@QEAAXW4priority_t@2@@Z 0000000180012470 f   task_group_context.obj
 0001:00011610       ?priority@task_group_context@tbb@@QEBA?AW4priority_t@2@XZ 0000000180012610 f   task_group_context.obj
 0001:00011630       ??$propagate_task_group_state@_K@generic_scheduler@internal@tbb@@QEAAXPEQtask_group_context@2@_KAEAV32@_K@Z 0000000180012630 f i task_group_context.obj
 0001:00011730       ??$propagate_task_group_state@_J@generic_scheduler@internal@tbb@@QEAAXPEQtask_group_context@2@_JAEAV32@_J@Z 0000000180012730 f i task_group_context.obj
 0001:00011840       ?initialize_cilk_interop@internal@tbb@@YA_NXZ 0000000180012840 f   governor.obj
 0001:00011870       ?sign_on@governor@internal@tbb@@SAXPEAVgeneric_scheduler@23@@Z 0000000180012870 f   governor.obj
 0001:000118f0       ?one_time_init@governor@internal@tbb@@SAXXZ 00000001800128f0 f   governor.obj
 0001:000119b0       ?init_scheduler@governor@internal@tbb@@SAPEAVgeneric_scheduler@23@H_K_N@Z 00000001800129b0 f   governor.obj
 0001:00011af0       ?auto_terminate@governor@internal@tbb@@CAXPEAX@Z 0000000180012af0 f   governor.obj
 0001:00011b80       ?stack_op_handler@governor@internal@tbb@@SAHW4__cilk_tbb_stack_op@@PEAX@Z 0000000180012b80 f   governor.obj
 0001:00011c10       ?initialization_impl@numa_topology@internal@tbb@@YAXXZ 0000000180012c10 f   governor.obj
 0001:00011e80       ?initialize@numa_topology@internal@tbb@@YAXXZ 0000000180012e80 f   governor.obj
 0001:00011f30       ?nodes_count@numa_topology@internal@tbb@@YAIXZ 0000000180012f30 f   governor.obj
 0001:00011f50       ?fill@numa_topology@internal@tbb@@YAXPEAH@Z 0000000180012f50 f   governor.obj
 0001:00011fa0       ?default_concurrency@numa_topology@internal@tbb@@YAHH@Z 0000000180012fa0 f   governor.obj
 0001:00011fd0       ?initialize@task_scheduler_init@tbb@@QEAAXH@Z 0000000180012fd0 f   governor.obj
 0001:00011fe0       ?initialize@task_scheduler_init@tbb@@QEAAXH_K@Z 0000000180012fe0 f   governor.obj
 0001:000122d0       ?internal_terminate@task_scheduler_init@tbb@@AEAA_N_N@Z 00000001800132d0 f   governor.obj
 0001:00012410       ?terminate@task_scheduler_init@tbb@@QEAAXXZ 0000000180013410 f   governor.obj
 0001:00012420       ?internal_blocking_terminate@task_scheduler_init@tbb@@AEAA_N_N@Z 0000000180013420 f   governor.obj
 0001:00012460       ?default_num_threads@task_scheduler_init@tbb@@SAHXZ 0000000180013460 f   governor.obj
 0001:00012470       ??1scoped_lock@spin_rw_mutex_v3@tbb@@QEAA@XZ 0000000180013470 f i market.obj
 0001:000124a0       ?max_job_count@market@internal@tbb@@EEBAIXZ 00000001800134a0 f i market.obj
 0001:000124b0       ?min_stack_size@market@internal@tbb@@EEBA_KXZ 00000001800134b0 f i market.obj
 0001:000124c0       _get_startup_argv_mode     00000001800134c0 f i MSVCRT:argv_mode.obj
 0001:000124c0       ?policy@market@internal@tbb@@EEBA?AW4policy_type@client@rml@@XZ 00000001800134c0 f i market.obj
 0001:000124d0       ?global_market@market@internal@tbb@@CAAEAV123@_NI_K@Z 00000001800134d0 f   market.obj
 0001:00012870       ?release@market@internal@tbb@@QEAA_N_N0@Z 0000000180013870 f   market.obj
 0001:000129f0       ?set_active_num_workers@market@internal@tbb@@SAXI@Z 00000001800139f0 f   market.obj
 0001:00012c70       ?create_arena@market@internal@tbb@@SAPEAVarena@23@HH_K@Z 0000000180013c70 f   market.obj
 0001:00012dd0       ?try_destroy_arena@market@internal@tbb@@QEAAXPEAVarena@23@_K@Z 0000000180013dd0 f   market.obj
 0001:00012f30       ?arena_in_need@market@internal@tbb@@AEAAPEAVarena@23@PEAV423@@Z 0000000180013f30 f   market.obj
 0001:00013090       ?update_allotment@market@internal@tbb@@AEAAX_J@Z 0000000180014090 f   market.obj
 0001:000131e0       ?enable_mandatory_concurrency@market@internal@tbb@@QEAAXPEAVarena@23@@Z 00000001800141e0 f   market.obj
 0001:000132e0       ?mandatory_concurrency_disable@market@internal@tbb@@QEAAXPEAVarena@23@@Z 00000001800142e0 f   market.obj
 0001:00013400       ?adjust_demand@market@internal@tbb@@QEAAXAEAVarena@23@H@Z 0000000180014400 f   market.obj
 0001:000136c0       ?process@market@internal@tbb@@EEAAXAEAVjob@rml@@@Z 00000001800146c0 f   market.obj
 0001:00013750       ?cleanup@market@internal@tbb@@EEAAXAEAVjob@rml@@@Z 0000000180014750 f   market.obj
 0001:00013850       ?acknowledge_close_connection@market@internal@tbb@@EEAAXXZ 0000000180014850 f   market.obj
 0001:00013870       ?create_one_job@market@internal@tbb@@EEAAPEAVjob@rml@@XZ 0000000180014870 f   market.obj
 0001:00013920       ?update_arena_top_priority@market@internal@tbb@@AEAAXAEAVarena@23@_J@Z 0000000180014920 f   market.obj
 0001:00013a30       ?update_arena_priority@market@internal@tbb@@QEAA_NAEAVarena@23@_J@Z 0000000180014a30 f   market.obj
 0001:00013c10       ?rethrow_exception@std@@YAXVexception_ptr@1@@Z 0000000180014c10 f i arena.obj
 0001:00013c20       ?throw_self@tbb_exception_ptr@internal@tbb@@QEAAXXZ 0000000180014c20 f i arena.obj
 0001:00013c40       ??_Etask_scheduler_observer_v3@internal@tbb@@UEAAPEAXI@Z 0000000180014c40 f i * CIL library *:* CIL module *
 0001:00013c40       ??_Gtask_scheduler_observer_v3@internal@tbb@@UEAAPEAXI@Z 0000000180014c40 f i arena.obj
 0001:00013c90       ??1task_scheduler_observer@interface6@tbb@@UEAA@XZ 0000000180014c90 f i arena.obj
 0001:00013ce0       ??_Gtask_scheduler_observer@interface6@tbb@@UEAAPEAXI@Z 0000000180014ce0 f i arena.obj
 0001:00013ce0       ??_Etask_scheduler_observer@interface6@tbb@@UEAAPEAXI@Z 0000000180014ce0 f i * CIL library *:* CIL module *
 0001:00013d50       ?notify_entry_observers@observer_list@internal@tbb@@QEAAXAEAPEAVobserver_proxy@23@_N@Z 0000000180014d50 f i arena.obj
 0001:00013ee0       ?notify_exit_observers@observer_list@internal@tbb@@QEAAXAEAPEAVobserver_proxy@23@_N@Z 0000000180014ee0 f i arena.obj
 0001:00014060       ?notify_one@concurrent_monitor@internal@tbb@@QEAAXXZ 0000000180015060 f i arena.obj
 0001:00014130       ?on_scheduler_entry@numa_binding_observer@internal@tbb@@UEAAX_N@Z 0000000180015130 f i arena.obj
 0001:00014180       ?on_scheduler_exit@numa_binding_observer@internal@tbb@@UEAAX_N@Z 0000000180015180 f i arena.obj
 0001:000141c0       ??_Enuma_binding_observer@internal@tbb@@UEAAPEAXI@Z 00000001800151c0 f i * CIL library *:* CIL module *
 0001:000141c0       ??_Gnuma_binding_observer@internal@tbb@@UEAAPEAXI@Z 00000001800151c0 f i arena.obj
 0001:00014240       ?occupy_free_slot_in_range@arena@internal@tbb@@QEAA_KAEAVgeneric_scheduler@23@_K1@Z 0000000180015240 f   arena.obj
 0001:00014330       ?process@arena@internal@tbb@@QEAAXAEAVgeneric_scheduler@23@@Z 0000000180015330 f   arena.obj
 0001:00014550       ??0arena@internal@tbb@@QEAA@AEAVmarket@12@II@Z 0000000180015550 f   arena.obj
 0001:000147a0       ??1?$padded@Uarena_base@internal@tbb@@$0IA@@internal@tbb@@QEAA@XZ 00000001800157a0 f i arena.obj
 0001:000147d0       ?free_arena@arena@internal@tbb@@QEAAXXZ 00000001800157d0 f   arena.obj
 0001:00014a30       ?is_out_of_work@arena@internal@tbb@@QEAA_NXZ 0000000180015a30 f   arena.obj
 0001:00014ef0       ?enqueue_task@arena@internal@tbb@@QEAAXAEAVtask@3@_JAEAVFastRandom@23@@Z 0000000180015ef0 f   arena.obj
 0001:00014fe0       ??0nested_arena_context@internal@tbb@@QEAA@PEAVgeneric_scheduler@12@PEAVarena@12@_K_N3@Z 0000000180015fe0 f i arena.obj
 0001:00015230       ??1nested_arena_context@internal@tbb@@QEAA@XZ 0000000180016230 f i arena.obj
 0001:000153c0       ??0auto_empty_task@internal@tbb@@QEAA@PEAVgeneric_scheduler@12@PEAVtask_group_context@2@@Z 00000001800163c0 f i arena.obj
 0001:000154c0       ??1auto_empty_task@internal@tbb@@QEAA@XZ 00000001800164c0 f i arena.obj
 0001:000154e0       ?internal_initialize@task_arena_base@internal@interface7@tbb@@IEAAXXZ 00000001800164e0 f   arena.obj
 0001:00015780       ?internal_terminate@task_arena_base@internal@interface7@tbb@@IEAAXXZ 0000000180016780 f   arena.obj
 0001:000158a0       ?internal_attach@task_arena_base@internal@interface7@tbb@@IEAAXXZ 00000001800168a0 f   arena.obj
 0001:00015920       ?internal_enqueue@task_arena_base@internal@interface7@tbb@@IEBAXAEAVtask@4@_J@Z 0000000180016920 f   arena.obj
 0001:00015990       ?execute@delegated_task@internal@interface7@tbb@@EEAAPEAVtask@4@XZ 0000000180016990 f i arena.obj
 0001:00015a30       ??1outermost_context@?1??execute@delegated_task@internal@interface7@tbb@@EEAAPEAVtask@5@XZ@QEAA@XZ 0000000180016a30 f i arena.obj
 0001:00015a60       ??_Edelegated_task@internal@interface7@tbb@@EEAAPEAXI@Z 0000000180016a60 f i * CIL library *:* CIL module *
 0001:00015a60       ??_Gdelegated_task@internal@interface7@tbb@@EEAAPEAXI@Z 0000000180016a60 f i arena.obj
 0001:00015bf0       ?internal_execute@task_arena_base@internal@interface7@tbb@@IEBAXAEAVdelegate_base@234@@Z 0000000180016bf0 f   arena.obj
 0001:000162b0       ?execute@wait_task@internal@interface7@tbb@@EEAAPEAVtask@4@XZ 00000001800172b0 f i arena.obj
 0001:00016320       ??_E?$function_task@Vspawn_functor@graph@interface10@flow@tbb@@@internal@tbb@@UEAAPEAXI@Z 0000000180017320 f i * CIL library *:* CIL module *
 0001:00016320       ??_G?$function_task@Vspawn_functor@graph@interface10@flow@tbb@@@internal@tbb@@UEAAPEAXI@Z 0000000180017320 f i arena.obj
 0001:00016320       ??_Gwait_task@internal@interface7@tbb@@UEAAPEAXI@Z 0000000180017320 f i arena.obj
 0001:00016320       ??_Ewait_task@internal@interface7@tbb@@UEAAPEAXI@Z 0000000180017320 f i * CIL library *:* CIL module *
 0001:00016350       ?internal_wait@task_arena_base@internal@interface7@tbb@@IEBAXXZ 0000000180017350 f   arena.obj
 0001:00016600       ?internal_current_slot@task_arena_base@internal@interface7@tbb@@KAHXZ 0000000180017600 f   arena.obj
 0001:00016630       ??1isolation_guard@internal@interface7@tbb@@QEAA@XZ 0000000180017630 f i arena.obj
 0001:00016640       ?isolate_within_arena@internal@interface7@tbb@@YAXAEAVdelegate_base@123@_J@Z 0000000180017640 f   arena.obj
 0001:000166d0       ?internal_max_concurrency@task_arena_base@internal@interface7@tbb@@KAHPEBVtask_arena@34@@Z 00000001800176d0 f   arena.obj
 0001:00016720       ?restore_default@?$context_guard_helper@$00@internal@tbb@@QEAAXXZ 0000000180017720 f i scheduler.obj
 0001:00016720       ?restore_default@?$context_guard_helper@$0A@@internal@tbb@@QEAAXXZ 0000000180017720 f i arena.obj
 0001:00016760       ??1?$context_guard_helper@$0A@@internal@tbb@@QEAA@XZ 0000000180017760 f i arena.obj
 0001:00016780       ?execute@?$function_task@Vspawn_functor@graph@interface10@flow@tbb@@@internal@tbb@@EEAAPEAVtask@3@XZ 0000000180017780 f i arena.obj
 0001:000167a0       ?push@?$task_stream@$02@internal@tbb@@QEAAXPEAVtask@3@HAEAVFastRandom@23@@Z 00000001800177a0 f i arena.obj
 0001:00016900       ??1?$task_stream@$02@internal@tbb@@QEAA@XZ 0000000180017900 f i arena.obj
 0001:00016970       ??0?$padded@U?$queue_and_mutex@PEAVtask@tbb@@Vspin_mutex@2@@internal@tbb@@$0IA@@internal@tbb@@QEAA@XZ 0000000180017970 f i arena.obj
 0001:000169e0       ??1?$padded@U?$queue_and_mutex@PEAVtask@tbb@@Vspin_mutex@2@@internal@tbb@@$0IA@@internal@tbb@@QEAA@XZ 00000001800179e0 f i arena.obj
 0001:000169f0       ??1?$deque@PEAVtask@tbb@@V?$tbb_allocator@PEAVtask@tbb@@@2@@std@@QEAA@XZ 00000001800179f0 f i arena.obj
 0001:00016a90       ??$advertise_new_work@$01@arena@internal@tbb@@QEAAXXZ 0000000180017a90 f i arena.obj
 0001:00016b60       ??$on_thread_leaving@$00@arena@internal@tbb@@QEAAXXZ 0000000180017b60 f i arena.obj
 0001:00016bf0       ??$occupy_free_slot@$0A@@arena@internal@tbb@@QEAA_KAEAVgeneric_scheduler@12@@Z 0000000180017bf0 f i arena.obj
 0001:00016cb0       ?_Growmap@?$deque@PEAVtask@tbb@@V?$tbb_allocator@PEAVtask@tbb@@@2@@std@@AEAAX_K@Z 0000000180017cb0 f i arena.obj
 0001:00016e10       ?_Xlen@?$deque@PEAVtask@tbb@@V?$tbb_allocator@PEAVtask@tbb@@@2@@std@@AEBAXXZ 0000000180017e10 f i arena.obj
 0001:00016e30       ??1scheduler@internal@tbb@@UEAA@XZ 0000000180017e30 f   scheduler.obj
 0001:00016e40       ??0generic_scheduler@internal@tbb@@IEAA@AEAVmarket@12@_N@Z 0000000180017e40 f   scheduler.obj
 0001:00017030       ??_Egeneric_scheduler@internal@tbb@@UEAAPEAXI@Z 0000000180018030 f i * CIL library *:* CIL module *
 0001:00017030       ??_E?$custom_scheduler@UIntelSchedulerTraits@internal@tbb@@@internal@tbb@@UEAAPEAXI@Z 0000000180018030 f i * CIL library *:* CIL module *
 0001:00017030       ??_E?$custom_scheduler@UDefaultSchedulerTraits@internal@tbb@@@internal@tbb@@UEAAPEAXI@Z 0000000180018030 f i * CIL library *:* CIL module *
 0001:00017030       ??_Ggeneric_scheduler@internal@tbb@@UEAAPEAXI@Z 0000000180018030 f i scheduler.obj
 0001:00017030       ??_G?$custom_scheduler@UIntelSchedulerTraits@internal@tbb@@@internal@tbb@@UEAAPEAXI@Z 0000000180018030 f i scheduler.obj
 0001:00017030       ??_G?$custom_scheduler@UDefaultSchedulerTraits@internal@tbb@@@internal@tbb@@UEAAPEAXI@Z 0000000180018030 f i scheduler.obj
 0001:00017060       ?cleanup_scheduler@generic_scheduler@internal@tbb@@QEAAXXZ 0000000180018060 f   scheduler.obj
 0001:00017260       ?allocate_task@generic_scheduler@internal@tbb@@QEAAAEAVtask@3@_KPEAV43@PEAVtask_group_context@3@@Z 0000000180018260 f   scheduler.obj
 0001:000173a0       ?prepare_task_pool@generic_scheduler@internal@tbb@@QEAA_K_K@Z 00000001800183a0 f i scheduler.obj
 0001:000176b0       ?acquire_task_pool@generic_scheduler@internal@tbb@@QEBAXXZ 00000001800186b0 f i scheduler.obj
 0001:00017770       ?prepare_for_spawning@generic_scheduler@internal@tbb@@QEAAPEAVtask@3@PEAV43@@Z 0000000180018770 f i scheduler.obj
 0001:000178d0       ?local_spawn@generic_scheduler@internal@tbb@@QEAAXPEAVtask@3@AEAPEAV43@@Z 00000001800188d0 f   scheduler.obj
 0001:00017bf0       ?spawn@generic_scheduler@internal@tbb@@UEAAXAEAVtask@3@AEAPEAV43@@Z 0000000180018bf0 f   scheduler.obj
 0001:00017c40       ?spawn_root_and_wait@generic_scheduler@internal@tbb@@UEAAXAEAVtask@3@AEAPEAV43@@Z 0000000180018c40 f   scheduler.obj
 0001:00017d20       ?enqueue@generic_scheduler@internal@tbb@@UEAAXAEAVtask@3@PEAX@Z 0000000180018d20 f   scheduler.obj
 0001:00017d80       ??1auto_indicator@internal@tbb@@QEAA@XZ 0000000180018d80 f i scheduler.obj
 0001:00017d90       ?get_task_and_activate_task_pool@generic_scheduler@internal@tbb@@QEAAPEAVtask@3@_K0_J@Z 0000000180018d90 f   scheduler.obj
 0001:00017ee0       ?winnow_task_pool@generic_scheduler@internal@tbb@@QEAAPEAVtask@3@_J@Z 0000000180018ee0 f   scheduler.obj
 0001:00017fb0       ?reload_tasks@generic_scheduler@internal@tbb@@QEAAPEAVtask@3@AEAPEAV43@AEAPEAPEAV43@_J2@Z 0000000180018fb0 f   scheduler.obj
 0001:000182d0       ?reload_tasks@generic_scheduler@internal@tbb@@QEAAPEAVtask@3@_J@Z 00000001800192d0 f   scheduler.obj
 0001:00018410       ?get_task@generic_scheduler@internal@tbb@@QEAAPEAVtask@3@_K_JAEA_N@Z 0000000180019410 f i scheduler.obj
 0001:000185d0       ?get_task@generic_scheduler@internal@tbb@@QEAAPEAVtask@3@_J@Z 00000001800195d0 f i scheduler.obj
 0001:00018840       ?steal_task@generic_scheduler@internal@tbb@@QEAAPEAVtask@3@_J@Z 0000000180019840 f   scheduler.obj
 0001:00018930       ?steal_task_from@generic_scheduler@internal@tbb@@QEAAPEAVtask@3@AEAUarena_slot@23@_J@Z 0000000180019930 f   scheduler.obj
 0001:00018b20       ?get_mailbox_task@generic_scheduler@internal@tbb@@QEAAPEAVtask@3@_J@Z 0000000180019b20 f   scheduler.obj
 0001:00018c50       ?create_master@generic_scheduler@internal@tbb@@SAPEAV123@PEAVarena@23@@Z 0000000180019c50 f   scheduler.obj
 0001:00018e90       ?cleanup_master@generic_scheduler@internal@tbb@@QEAA_N_N@Z 0000000180019e90 f   scheduler.obj
 0001:00019120       ??1?$fast_reverse_vector@PEAVtask@tbb@@$0BA@@internal@tbb@@QEAA@XZ 000000018001a120 f i scheduler.obj
 0001:00019170       ?allocate_scheduler@?$custom_scheduler@UIntelSchedulerTraits@internal@tbb@@@internal@tbb@@SAPEAVgeneric_scheduler@23@AEAVmarket@23@_N@Z 000000018001a170 f i scheduler.obj
 0001:00019200       ?wait_for_all@?$custom_scheduler@UIntelSchedulerTraits@internal@tbb@@@internal@tbb@@EEAAXAEAVtask@3@PEAV43@@Z 000000018001a200 f i scheduler.obj
 0001:00019250       ?allocate_scheduler@?$custom_scheduler@UDefaultSchedulerTraits@internal@tbb@@@internal@tbb@@SAPEAVgeneric_scheduler@23@AEAVmarket@23@_N@Z 000000018001a250 f i scheduler.obj
 0001:000192e0       ?wait_for_all@?$custom_scheduler@UDefaultSchedulerTraits@internal@tbb@@@internal@tbb@@EEAAXAEAVtask@3@PEAV43@@Z 000000018001a2e0 f i scheduler.obj
 0001:00019330       ?local_wait_for_all@?$custom_scheduler@UDefaultSchedulerTraits@internal@tbb@@@internal@tbb@@EEAAXAEAVtask@3@PEAV43@@Z 000000018001a330 f i scheduler.obj
 0001:000197a0       ?receive_or_steal_task@?$custom_scheduler@UDefaultSchedulerTraits@internal@tbb@@@internal@tbb@@UEAAPEAVtask@3@AEA_J_J@Z 000000018001a7a0 f i scheduler.obj
 0001:00019ca0       ?local_wait_for_all@?$custom_scheduler@UIntelSchedulerTraits@internal@tbb@@@internal@tbb@@EEAAXAEAVtask@3@PEAV43@@Z 000000018001aca0 f i scheduler.obj
 0001:00019fd0       ?receive_or_steal_task@?$custom_scheduler@UIntelSchedulerTraits@internal@tbb@@@internal@tbb@@UEAAPEAVtask@3@AEA_J_J@Z 000000018001afd0 f i scheduler.obj
 0001:0001a430       ??$advertise_new_work@$0A@@arena@internal@tbb@@QEAAXXZ 000000018001b430 f i scheduler.obj
 0001:0001a4d0       ??$free_task@$0A@@generic_scheduler@internal@tbb@@QEAAXAEAVtask@2@@Z 000000018001b4d0 f i scheduler.obj
 0001:0001a4d0       ??$free_task@$05@generic_scheduler@internal@tbb@@QEAAXAEAVtask@2@@Z 000000018001b4d0 f i scheduler.obj
 0001:0001a5d0       ??1?$context_guard_helper@$00@internal@tbb@@QEAA@XZ 000000018001b5d0 f i scheduler.obj
 0001:0001a640       ?pop@?$task_stream@$02@internal@tbb@@QEAAPEAVtask@3@HAEAI@Z 000000018001b640 f i scheduler.obj
 0001:0001a760       ?process_bypass_loop@?$custom_scheduler@UDefaultSchedulerTraits@internal@tbb@@@internal@tbb@@AEAA_NAEAV?$context_guard_helper@$00@23@PEAVtask@3@_J@Z 000000018001b760 f i scheduler.obj
 0001:0001aaa0       ?process_bypass_loop@?$custom_scheduler@UIntelSchedulerTraits@internal@tbb@@@internal@tbb@@AEAA_NAEAV?$context_guard_helper@$0A@@23@PEAVtask@3@_J@Z 000000018001baa0 f i scheduler.obj
 0001:0001ad50       ?tally_completion_of_predecessor@?$custom_scheduler@UIntelSchedulerTraits@internal@tbb@@@internal@tbb@@AEAAXAEAVtask@3@AEAPEAV43@_J@Z 000000018001bd50 f i scheduler.obj
 0001:0001ae70       ?tally_completion_of_predecessor@?$custom_scheduler@UDefaultSchedulerTraits@internal@tbb@@@internal@tbb@@AEAAXAEAVtask@3@AEAPEAV43@_J@Z 000000018001be70 f i scheduler.obj
 0001:0001afb0       ?insert@observer_list@internal@tbb@@QEAAXPEAVobserver_proxy@23@@Z 000000018001bfb0 f   observer_proxy.obj
 0001:0001b040       ?remove_ref@observer_list@internal@tbb@@QEAAXPEAVobserver_proxy@23@@Z 000000018001c040 f   observer_proxy.obj
 0001:0001b110       ?observe@task_scheduler_observer_v3@internal@tbb@@QEAAX_N@Z 000000018001c110 f   observer_proxy.obj
 0001:0001b3d0       ?terminate_auto_initialized_scheduler@governor@internal@tbb@@SAXXZ 000000018001c3d0 f i tbb_main.obj
 0001:0001b470       ?add_ref@__TBB_InitOnce@internal@tbb@@SAXXZ 000000018001c470 f   tbb_main.obj
 0001:0001b4e0       ?remove_ref@__TBB_InitOnce@internal@tbb@@SAXXZ 000000018001c4e0 f   tbb_main.obj
 0001:0001b5a0       ?ITT_DoUnsafeOneTimeInitialization@internal@tbb@@YAXXZ 000000018001c5a0 f   tbb_main.obj
 0001:0001b6c0       ITT_DoOneTimeInitialization 000000018001c6c0 f   tbb_main.obj
 0001:0001b740       ?DoOneTimeInitializations@internal@tbb@@YAXXZ 000000018001c740 f   tbb_main.obj
 0001:0001ba00       DllMain                    000000018001ca00 f   tbb_main.obj
 0001:0001ba50       ?itt_store_pointer_with_release_v3@internal@tbb@@YAXPEAX0@Z 000000018001ca50 f   tbb_main.obj
 0001:0001ba90       ?itt_load_pointer_with_acquire_v3@internal@tbb@@YAPEAXPEBX@Z 000000018001ca90 f   tbb_main.obj
 0001:0001bab0       ?call_itt_notify_v5@internal@tbb@@YAXHPEAX@Z 000000018001cab0 f   tbb_main.obj
 0001:0001bb00       ?itt_make_task_group_v7@internal@tbb@@YAXW4itt_domain_enum@12@PEAX_K12W4string_index@12@@Z 000000018001cb00 f   tbb_main.obj
 0001:0001bc80       ?itt_metadata_str_add_v7@internal@tbb@@YAXW4itt_domain_enum@12@PEAX_KW4string_index@12@PEBD@Z 000000018001cc80 f   tbb_main.obj
 0001:0001bd60       ?itt_metadata_ptr_add_v11@internal@tbb@@YAXW4itt_domain_enum@12@PEAX_KW4string_index@12@1@Z 000000018001cd60 f   tbb_main.obj
 0001:0001be40       ?itt_relation_add_v7@internal@tbb@@YAXW4itt_domain_enum@12@PEAX_KW4itt_relation@12@12@Z 000000018001ce40 f   tbb_main.obj
 0001:0001bf30       ?itt_task_begin_v7@internal@tbb@@YAXW4itt_domain_enum@12@PEAX_K12W4string_index@12@@Z 000000018001cf30 f   tbb_main.obj
 0001:0001c050       ?itt_task_end_v7@internal@tbb@@YAXW4itt_domain_enum@12@@Z 000000018001d050 f   tbb_main.obj
 0001:0001c0a0       ?itt_region_begin_v9@internal@tbb@@YAXW4itt_domain_enum@12@PEAX_K12W4string_index@12@@Z 000000018001d0a0 f   tbb_main.obj
 0001:0001c190       ?itt_region_end_v9@internal@tbb@@YAXW4itt_domain_enum@12@PEAX_K@Z 000000018001d190 f   tbb_main.obj
 0001:0001c220       ?itt_load_pointer_v3@internal@tbb@@YAPEAXPEBX@Z 000000018001d220 f   tbb_main.obj
 0001:0001c230       ?itt_set_sync_name_v3@internal@tbb@@YAXPEAXPEB_W@Z 000000018001d230 f   tbb_main.obj
 0001:0001c240       ?is_first_arg_preferred@control_storage@internal@tbb@@MEBA_N_K0@Z 000000018001d240 f i tbb_main.obj
 0001:0001c250       ?active_value@control_storage@internal@tbb@@MEBA_KXZ 000000018001d250 f i tbb_main.obj
 0001:0001c270       ?default_value@allowed_parallelism_control@internal@tbb@@EEBA_KXZ 000000018001d270 f i tbb_main.obj
 0001:0001c290       ?is_first_arg_preferred@allowed_parallelism_control@internal@tbb@@EEBA_N_K0@Z 000000018001d290 f i tbb_main.obj
 0001:0001c2a0       ?apply_active@allowed_parallelism_control@internal@tbb@@EEBAXXZ 000000018001d2a0 f i tbb_main.obj
 0001:0001c2b0       ?active_value@allowed_parallelism_control@internal@tbb@@EEBA_KXZ 000000018001d2b0 f i tbb_main.obj
 0001:0001c370       ?default_value@stack_size_control@internal@tbb@@EEBA_KXZ 000000018001d370 f i tbb_main.obj
 0001:0001c380       ?internal_create@global_control@interface9@tbb@@AEAAXXZ 000000018001d380 f   tbb_main.obj
 0001:0001c4f0       ?internal_destroy@global_control@interface9@tbb@@AEAAXXZ 000000018001d4f0 f   tbb_main.obj
 0001:0001c6c0       ?active_value@global_control@interface9@tbb@@CA_KH@Z 000000018001d6c0 f   tbb_main.obj
 0001:0001c770       ?internal_grow_to_at_least@concurrent_vector_base@internal@tbb@@IEAAX_K0P6AXPEAX0@Z@Z 000000018001d770 f   concurrent_vector_v2.obj
 0001:0001c7b0       ?extend_segment_if_necessary@helper@concurrent_vector_base@internal@tbb@@SAXAEAV234@_K@Z 000000018001d7b0 f i concurrent_vector_v2.obj
 0001:0001c880       ?internal_capacity@concurrent_vector_base@internal@tbb@@IEBA_KXZ 000000018001d880 f   concurrent_vector_v2.obj
 0001:0001c8d0       ?internal_reserve@concurrent_vector_base@internal@tbb@@IEAAX_K00@Z 000000018001d8d0 f   concurrent_vector_v2.obj
 0001:0001ca30       ?internal_copy@concurrent_vector_base@internal@tbb@@IEAAXAEBV123@_KP6AXPEAXPEBX1@Z@Z 000000018001da30 f   concurrent_vector_v2.obj
 0001:0001cb60       ?internal_assign@concurrent_vector_base@internal@tbb@@IEAAXAEBV123@_KP6AXPEAX1@ZP6AX2PEBX1@Z5@Z 000000018001db60 f   concurrent_vector_v2.obj
 0001:0001cd50       ?internal_push_back@concurrent_vector_base@internal@tbb@@IEAAPEAX_KAEA_K@Z 000000018001dd50 f   concurrent_vector_v2.obj
 0001:0001cec0       ?internal_grow_by@concurrent_vector_base@internal@tbb@@IEAA_K_K0P6AXPEAX0@Z@Z 000000018001dec0 f   concurrent_vector_v2.obj
 0001:0001cef0       ?internal_grow@concurrent_vector_base@internal@tbb@@IEAAX_K00P6AXPEAX0@Z@Z 000000018001def0 f   concurrent_vector_v2.obj
 0001:0001d0a0       ?internal_clear@concurrent_vector_base@internal@tbb@@IEAAXP6AXPEAX_K@Z_N@Z 000000018001e0a0 f   concurrent_vector_v2.obj
 0001:0001d1b0       ??1push_finalizer@micro_queue@internal@tbb@@QEAA@XZ 000000018001e1b0 f i concurrent_queue_v2.obj
 0001:0001d1c0       ??1pop_finalizer@micro_queue@internal@tbb@@QEAA@XZ 000000018001e1c0 f i concurrent_queue_v2.obj
 0001:0001d290       ?push@micro_queue@internal@tbb@@QEAAXPEBX_KAEAVconcurrent_queue_base@23@@Z 000000018001e290 f   concurrent_queue_v2.obj
 0001:0001d3e0       ?pop@micro_queue@internal@tbb@@QEAA_NPEAX_KAEAVconcurrent_queue_base@23@@Z 000000018001e3e0 f   concurrent_queue_v2.obj
 0001:0001d560       ??0concurrent_queue_base@internal@tbb@@IEAA@_K@Z 000000018001e560 f   concurrent_queue_v2.obj
 0001:0001d630       ??_Econcurrent_queue_base@internal@tbb@@MEAAPEAXI@Z 000000018001e630 f i * CIL library *:* CIL module *
 0001:0001d630       ??_Gconcurrent_queue_base@internal@tbb@@MEAAPEAXI@Z 000000018001e630 f i concurrent_queue_v2.obj
 0001:0001d6b0       ??1concurrent_queue_base@internal@tbb@@MEAA@XZ 000000018001e6b0 f   concurrent_queue_v2.obj
 0001:0001d710       ?internal_push@concurrent_queue_base@internal@tbb@@IEAAXPEBX@Z 000000018001e710 f   concurrent_queue_v2.obj
 0001:0001d7e0       ?internal_pop@concurrent_queue_base@internal@tbb@@IEAAXPEAX@Z 000000018001e7e0 f   concurrent_queue_v2.obj
 0001:0001d840       ?internal_pop_if_present@concurrent_queue_base@internal@tbb@@IEAA_NPEAX@Z 000000018001e840 f   concurrent_queue_v2.obj
 0001:0001d900       ?internal_push_if_not_full@concurrent_queue_base@internal@tbb@@IEAA_NPEBX@Z 000000018001e900 f   concurrent_queue_v2.obj
 0001:0001d9d0       ?internal_size@concurrent_queue_base@internal@tbb@@IEBA_JXZ 000000018001e9d0 f   concurrent_queue_v2.obj
 0001:0001d9f0       ??0concurrent_queue_iterator_base@internal@tbb@@IEAA@AEBVconcurrent_queue_base@12@@Z 000000018001e9f0 f   concurrent_queue_v2.obj
 0001:0001dad0       ?assign@concurrent_queue_iterator_base@internal@tbb@@IEAAXAEBV123@@Z 000000018001ead0 f   concurrent_queue_v2.obj
 0001:0001db70       ?advance@concurrent_queue_iterator_base@internal@tbb@@IEAAXXZ 000000018001eb70 f   concurrent_queue_v2.obj
 0001:0001dc10       ??1concurrent_queue_iterator_base@internal@tbb@@IEAA@XZ 000000018001ec10 f   concurrent_queue_v2.obj
 0001:0001dc40       ?internal_itt_releasing@spin_rw_mutex@tbb@@CAXPEAV12@@Z 000000018001ec40 f   spin_rw_mutex_v2.obj
 0001:0001dc50       ?internal_release_writer@spin_rw_mutex@tbb@@CAXPEAV12@@Z 000000018001ec50 f   spin_rw_mutex_v2.obj
 0001:0001dc90       ?internal_acquire_reader@spin_rw_mutex@tbb@@CAXPEAV12@@Z 000000018001ec90 f   spin_rw_mutex_v2.obj
 0001:0001dd40       ?internal_upgrade@spin_rw_mutex@tbb@@CA_NPEAV12@@Z 000000018001ed40 f   spin_rw_mutex_v2.obj
 0001:0001df00       ?internal_downgrade@spin_rw_mutex@tbb@@CAXPEAV12@@Z 000000018001ef00 f   spin_rw_mutex_v2.obj
 0001:0001df40       ?internal_try_acquire_reader@spin_rw_mutex@tbb@@CA_NPEAV12@@Z 000000018001ef40 f   spin_rw_mutex_v2.obj
 0001:0001dfc0       ?destroy@task@tbb@@QEAAXAEAV12@@Z 000000018001efc0 f   task_v2.obj
 0001:0001e130       __TBB_machine_fetchadd1    000000018001f130     atomic_support.obj
 0001:0001e138       __TBB_machine_fetchstore1  000000018001f138     atomic_support.obj
 0001:0001e140       __TBB_machine_cmpswp1      000000018001f140     atomic_support.obj
 0001:0001e148       __TBB_machine_fetchadd2    000000018001f148     atomic_support.obj
 0001:0001e158       __TBB_machine_fetchstore2  000000018001f158     atomic_support.obj
 0001:0001e160       __TBB_machine_cmpswp2      000000018001f160     atomic_support.obj
 0001:0001e170       __TBB_machine_pause        000000018001f170     atomic_support.obj
 0001:0001e180       __TBB_get_cpu_ctl_env      000000018001f180     intel64_misc.obj
 0001:0001e188       __TBB_set_cpu_ctl_env      000000018001f188     intel64_misc.obj
 0001:0001e190       __TBB_machine_try_lock_elided 000000018001f190     itsx.obj
 0001:0001e1a0       __TBB_machine_unlock_elided 000000018001f1a0     itsx.obj
 0001:0001e1a8       __TBB_machine_begin_transaction 000000018001f1a8     itsx.obj
 0001:0001e1b8       __TBB_machine_end_transaction 000000018001f1b8     itsx.obj
 0001:0001e1c0       __TBB_machine_transaction_conflict_abort 000000018001f1c0     itsx.obj
 0001:0001e1c8       __TBB_machine_is_in_transaction 000000018001f1c8     itsx.obj
 0001:0001e1f0       __security_check_cookie    000000018001f1f0 f   MSVCRT:amdsecgs.obj
 0001:0001e210       ??_V@YAXPEAX@Z             000000018001f210 f   MSVCRT:delete_array.obj
 0001:0001e210       ??3@YAXPEAX_K@Z            000000018001f210 f   MSVCRT:delete_scalar_size.obj
 0001:0001e218       ??_Etype_info@@UEAAPEAXI@Z 000000018001f218 f i MSVCRT:std_type_info_static.obj
 0001:0001e218       ??_Gtype_info@@UEAAPEAXI@Z 000000018001f218 f i MSVCRT:std_type_info_static.obj
 0001:0001e244       __raise_securityfailure    000000018001f244 f   MSVCRT:gs_report.obj
 0001:0001e278       __report_gsfailure         000000018001f278 f   MSVCRT:gs_report.obj
 0001:0001e34c       __report_rangecheckfailure 000000018001f34c f   MSVCRT:gs_report.obj
 0001:0001e360       __report_securityfailure   000000018001f360 f   MSVCRT:gs_report.obj
 0001:0001e4e0       ??2@YAPEAX_K@Z             000000018001f4e0 f   MSVCRT:new_scalar.obj
 0001:0001e51c       ?__scrt_initialize_type_info@@YAXXZ 000000018001f51c f   MSVCRT:tncleanup.obj
 0001:0001e52c       ?__scrt_uninitialize_type_info@@YAXXZ 000000018001f52c f   MSVCRT:tncleanup.obj
 0001:0001e630       _Init_thread_abort         000000018001f630 f   MSVCRT:thread_safe_statics.obj
 0001:0001e660       _Init_thread_footer        000000018001f660 f   MSVCRT:thread_safe_statics.obj
 0001:0001e6c0       _Init_thread_header        000000018001f6c0 f   MSVCRT:thread_safe_statics.obj
 0001:0001e728       _Init_thread_notify        000000018001f728 f   MSVCRT:thread_safe_statics.obj
 0001:0001e76c       _Init_thread_wait          000000018001f76c f   MSVCRT:thread_safe_statics.obj
 0001:0001e7d0       ??_V@YAXPEAX_K@Z           000000018001f7d0 f   MSVCRT:delete_array_size.obj
 0001:0001e7d8       ??_M@YAXPEAX_K1P6AX0@Z@Z   000000018001f7d8 f   MSVCRT:ehvecdtr.obj
 0001:0001e844       ?__ArrayUnwind@@YAXPEAX_K1P6AX0@Z@Z 000000018001f844 f   MSVCRT:ehvecdtr.obj
 0001:0001e8a8       ??_U@YAPEAX_K@Z            000000018001f8a8 f   MSVCRT:new_array.obj
 0001:0001e8b0       ??_L@YAXPEAX_K1P6AX0@Z2@Z  000000018001f8b0 f   MSVCRT:ehvecctr.obj
 0001:0001e920       __scrt_acquire_startup_lock 000000018001f920 f   MSVCRT:utility.obj
 0001:0001e95c       __scrt_dllmain_after_initialize_c 000000018001f95c f   MSVCRT:utility.obj
 0001:0001e990       __scrt_dllmain_before_initialize_c 000000018001f990 f   MSVCRT:utility.obj
 0001:0001e9a8       __scrt_dllmain_crt_thread_attach 000000018001f9a8 f   MSVCRT:utility.obj
 0001:0001e9d0       __scrt_dllmain_crt_thread_detach 000000018001f9d0 f   MSVCRT:utility.obj
 0001:0001e9e8       __scrt_dllmain_exception_filter 000000018001f9e8 f   MSVCRT:utility.obj
 0001:0001ea48       __scrt_dllmain_uninitialize_c 000000018001fa48 f   MSVCRT:utility.obj
 0001:0001ea78       __scrt_dllmain_uninitialize_critical 000000018001fa78 f   MSVCRT:utility.obj
 0001:0001ea8c       __scrt_initialize_crt      000000018001fa8c f   MSVCRT:utility.obj
 0001:0001ead8       __scrt_initialize_onexit_tables 000000018001fad8 f   MSVCRT:utility.obj
 0001:0001eb64       __scrt_is_nonwritable_in_current_image 000000018001fb64 f   MSVCRT:utility.obj
 0001:0001ebfc       __scrt_release_startup_lock 000000018001fbfc f   MSVCRT:utility.obj
 0001:0001ec20       __scrt_uninitialize_crt    000000018001fc20 f   MSVCRT:utility.obj
 0001:0001ec4c       _onexit                    000000018001fc4c f   MSVCRT:utility.obj
 0001:0001ec88       atexit                     000000018001fc88 f   MSVCRT:utility.obj
 0001:0001eca0       ??3@YAXPEAX@Z              000000018001fca0 f   MSVCRT:delete_scalar.obj
 0001:0001efc8       _DllMainCRTStartup         000000018001ffc8 f   MSVCRT:dll_dllmain.obj
 0001:0001f008       ??0bad_array_new_length@std@@QEAA@AEBV01@@Z 0000000180020008 f i MSVCRT:throw_bad_alloc.obj
 0001:0001f044       ??0bad_array_new_length@std@@QEAA@XZ 0000000180020044 f i MSVCRT:throw_bad_alloc.obj
 0001:0001f064       ??1bad_array_new_length@std@@UEAA@XZ 0000000180020064 f i MSVCRT:throw_bad_alloc.obj
 0001:0001f078       ??_Ebad_array_new_length@std@@UEAAPEAXI@Z 0000000180020078 f i MSVCRT:throw_bad_alloc.obj
 0001:0001f078       ??_Gbad_array_new_length@std@@UEAAPEAXI@Z 0000000180020078 f i MSVCRT:throw_bad_alloc.obj
 0001:0001f0bc       ?__scrt_throw_std_bad_alloc@@YAXXZ 00000001800200bc f   MSVCRT:throw_bad_alloc.obj
 0001:0001f0dc       ?__scrt_throw_std_bad_array_new_length@@YAXXZ 00000001800200dc f   MSVCRT:throw_bad_alloc.obj
 0001:0001f0fc       __crt_debugger_hook        00000001800200fc f   MSVCRT:utility_desktop.obj
 0001:0001f104       __scrt_fastfail            0000000180020104 f   MSVCRT:utility_desktop.obj
 0001:0001f250       __isa_available_init       0000000180020250 f   MSVCRT:cpu_disp.obj
 0001:0001f3f4       __scrt_is_ucrt_dll_in_use  00000001800203f4 f   MSVCRT:ucrt_detection.obj
 0001:0001f400       __security_init_cookie     0000000180020400 f   MSVCRT:gs_support.obj
 0001:0001f4ac       __local_stdio_scanf_options 00000001800204ac f i MSVCRT:default_local_stdio_options.obj
 0001:0001f4b4       __scrt_initialize_default_local_stdio_options 00000001800204b4 f   MSVCRT:default_local_stdio_options.obj
 0001:0001f4d0       __scrt_get_dyn_tls_init_callback 00000001800204d0 f   MSVCRT:dyn_tls_init.obj
 0001:0001f4d8       _RTC_Initialize            00000001800204d8 f   MSVCRT:initsect.obj
 0001:0001f514       _RTC_Terminate             0000000180020514 f   MSVCRT:initsect.obj
 0001:0001f550       __CxxFrameHandler4         0000000180020550 f   vcruntime:VCRUNTIME140_1.dll
 0001:0001f556       _purecall                  0000000180020556 f   vcruntime:VCRUNTIME140.dll
 0001:0001f55c       __std_terminate            000000018002055c f   vcruntime:VCRUNTIME140.dll
 0001:0001f562       __std_exception_destroy    0000000180020562 f   vcruntime:VCRUNTIME140.dll
 0001:0001f568       __std_exception_copy       0000000180020568 f   vcruntime:VCRUNTIME140.dll
 0001:0001f56e       __std_type_info_destroy_list 000000018002056e f   vcruntime:VCRUNTIME140.dll
 0001:0001f574       __current_exception        0000000180020574 f   vcruntime:VCRUNTIME140.dll
 0001:0001f57a       __current_exception_context 000000018002057a f   vcruntime:VCRUNTIME140.dll
 0001:0001f580       __C_specific_handler       0000000180020580 f   vcruntime:VCRUNTIME140.dll
 0001:0001f586       _CxxThrowException         0000000180020586 f   vcruntime:VCRUNTIME140.dll
 0001:0001f58c       memset                     000000018002058c f   vcruntime:VCRUNTIME140.dll
 0001:0001f592       malloc                     0000000180020592 f   ucrt:api-ms-win-crt-heap-l1-1-0.dll
 0001:0001f598       free                       0000000180020598 f   ucrt:api-ms-win-crt-heap-l1-1-0.dll
 0001:0001f59e       _callnewh                  000000018002059e f   ucrt:api-ms-win-crt-heap-l1-1-0.dll
 0001:0001f5a4       terminate                  00000001800205a4 f   ucrt:api-ms-win-crt-runtime-l1-1-0.dll
 0001:0001f5aa       _seh_filter_dll            00000001800205aa f   ucrt:api-ms-win-crt-runtime-l1-1-0.dll
 0001:0001f5b0       _configure_narrow_argv     00000001800205b0 f   ucrt:api-ms-win-crt-runtime-l1-1-0.dll
 0001:0001f5b6       _initialize_narrow_environment 00000001800205b6 f   ucrt:api-ms-win-crt-runtime-l1-1-0.dll
 0001:0001f5bc       _initialize_onexit_table   00000001800205bc f   ucrt:api-ms-win-crt-runtime-l1-1-0.dll
 0001:0001f5c2       _register_onexit_function  00000001800205c2 f   ucrt:api-ms-win-crt-runtime-l1-1-0.dll
 0001:0001f5c8       _execute_onexit_table      00000001800205c8 f   ucrt:api-ms-win-crt-runtime-l1-1-0.dll
 0001:0001f5ce       _crt_atexit                00000001800205ce f   ucrt:api-ms-win-crt-runtime-l1-1-0.dll
 0001:0001f5d4       _cexit                     00000001800205d4 f   ucrt:api-ms-win-crt-runtime-l1-1-0.dll
 0001:0001f5da       _initterm                  00000001800205da f   ucrt:api-ms-win-crt-runtime-l1-1-0.dll
 0001:0001f5e0       _initterm_e                00000001800205e0 f   ucrt:api-ms-win-crt-runtime-l1-1-0.dll
 0001:0001f5e8       __GSHandlerCheck           00000001800205e8 f   MSVCRT:gshandler.obj
 0001:0001f608       __GSHandlerCheckCommon     0000000180020608 f   MSVCRT:gshandler.obj
 0001:0001f664       __GSHandlerCheck_EH4       0000000180020664 f   MSVCRT:gshandlereh4.obj
 0001:0001f700       _alloca_probe              0000000180020700 f   MSVCRT:chkstk.obj
 0001:0001f700       __chkstk                   0000000180020700 f   MSVCRT:chkstk.obj
 0001:0001f74e       __RTDynamicCast            000000018002074e f   vcruntime:VCRUNTIME140.dll
 0001:0001f754       memcpy                     0000000180020754 f   vcruntime:VCRUNTIME140.dll
 0001:0001f75a       memmove                    000000018002075a f   vcruntime:VCRUNTIME140.dll
 0001:0001f770       _guard_dispatch_icall_nop  0000000180020770 f   MSVCRT:guard_dispatch.obj
 0001:0001f790       _guard_xfg_dispatch_icall_nop 0000000180020790 f   MSVCRT:guard_xfg_dispatch.obj
 0002:00000000       __imp_SetEvent             0000000180022000     kernel32:KERNEL32.dll
 0002:00000008       __imp_WaitForSingleObjectEx 0000000180022008     kernel32:KERNEL32.dll
 0002:00000010       __imp_CloseHandle          0000000180022010     kernel32:KERNEL32.dll
 0002:00000018       __imp_SwitchToThread       0000000180022018     kernel32:KERNEL32.dll
 0002:00000020       __imp_GetModuleFileNameA   0000000180022020     kernel32:KERNEL32.dll
 0002:00000028       __imp_SetErrorMode         0000000180022028     kernel32:KERNEL32.dll
 0002:00000030       __imp_GetModuleHandleExA   0000000180022030     kernel32:KERNEL32.dll
 0002:00000038       __imp_GetLastError         0000000180022038     kernel32:KERNEL32.dll
 0002:00000040       __imp_LoadLibraryA         0000000180022040     kernel32:KERNEL32.dll
 0002:00000048       __imp_GetProcAddress       0000000180022048     kernel32:KERNEL32.dll
 0002:00000050       __imp_FreeLibrary          0000000180022050     kernel32:KERNEL32.dll
 0002:00000058       __imp_EnterCriticalSection 0000000180022058     kernel32:KERNEL32.dll
 0002:00000060       __imp_LeaveCriticalSection 0000000180022060     kernel32:KERNEL32.dll
 0002:00000068       __imp_InitializeCriticalSection 0000000180022068     kernel32:KERNEL32.dll
 0002:00000070       __imp_GetEnvironmentVariableA 0000000180022070     kernel32:KERNEL32.dll
 0002:00000078       __imp_GetCurrentThreadId   0000000180022078     kernel32:KERNEL32.dll
 0002:00000080       __imp_lstrcmpA             0000000180022080     kernel32:KERNEL32.dll
 0002:00000088       __imp_TlsSetValue          0000000180022088     kernel32:KERNEL32.dll
 0002:00000090       __imp_ReleaseSemaphore     0000000180022090     kernel32:KERNEL32.dll
 0002:00000098       __imp_TlsAlloc             0000000180022098     kernel32:KERNEL32.dll
 0002:000000a0       __imp_CreateSemaphoreW     00000001800220a0     kernel32:KERNEL32.dll
 0002:000000a8       __imp_TlsGetValue          00000001800220a8     kernel32:KERNEL32.dll
 0002:000000b0       __imp_TlsFree              00000001800220b0     kernel32:KERNEL32.dll
 0002:000000b8       __imp_TryEnterCriticalSection 00000001800220b8     kernel32:KERNEL32.dll
 0002:000000c0       __imp_InitializeCriticalSectionAndSpinCount 00000001800220c0     kernel32:KERNEL32.dll
 0002:000000c8       __imp_DeleteCriticalSection 00000001800220c8     kernel32:KERNEL32.dll
 0002:000000d0       __imp_SetLastError         00000001800220d0     kernel32:KERNEL32.dll
 0002:000000d8       __imp_QueryPerformanceFrequency 00000001800220d8     kernel32:KERNEL32.dll
 0002:000000e0       __imp_ResetEvent           00000001800220e0     kernel32:KERNEL32.dll
 0002:000000e8       __imp_CreateEventA         00000001800220e8     kernel32:KERNEL32.dll
 0002:000000f0       __imp_Sleep                00000001800220f0     kernel32:KERNEL32.dll
 0002:000000f8       __imp_QueryPerformanceCounter 00000001800220f8     kernel32:KERNEL32.dll
 0002:00000100       __imp_ResumeThread         0000000180022100     kernel32:KERNEL32.dll
 0002:00000108       __imp_GetSystemInfo        0000000180022108     kernel32:KERNEL32.dll
 0002:00000110       __imp_FormatMessageA       0000000180022110     kernel32:KERNEL32.dll
 0002:00000118       __imp_GetCurrentProcess    0000000180022118     kernel32:KERNEL32.dll
 0002:00000120       __imp_GetProcessAffinityMask 0000000180022120     kernel32:KERNEL32.dll
 0002:00000128       __imp_GetCurrentThread     0000000180022128     kernel32:KERNEL32.dll
 0002:00000130       __imp_GetNativeSystemInfo  0000000180022130     kernel32:KERNEL32.dll
 0002:00000138       __imp_CreateEventW         0000000180022138     kernel32:KERNEL32.dll
 0002:00000140       __imp_RtlLookupFunctionEntry 0000000180022140     kernel32:KERNEL32.dll
 0002:00000148       __imp_RtlVirtualUnwind     0000000180022148     kernel32:KERNEL32.dll
 0002:00000150       __imp_UnhandledExceptionFilter 0000000180022150     kernel32:KERNEL32.dll
 0002:00000158       __imp_SetUnhandledExceptionFilter 0000000180022158     kernel32:KERNEL32.dll
 0002:00000160       __imp_TerminateProcess     0000000180022160     kernel32:KERNEL32.dll
 0002:00000168       __imp_IsProcessorFeaturePresent 0000000180022168     kernel32:KERNEL32.dll
 0002:00000170       __imp_InitializeSListHead  0000000180022170     kernel32:KERNEL32.dll
 0002:00000178       __imp_GetModuleHandleW     0000000180022178     kernel32:KERNEL32.dll
 0002:00000180       __imp_IsDebuggerPresent    0000000180022180     kernel32:KERNEL32.dll
 0002:00000188       __imp_GetCurrentProcessId  0000000180022188     kernel32:KERNEL32.dll
 0002:00000190       __imp_GetSystemTimeAsFileTime 0000000180022190     kernel32:KERNEL32.dll
 0002:00000198       __imp_RtlCaptureContext    0000000180022198     kernel32:KERNEL32.dll
 0002:000001a0       \177KERNEL32_NULL_THUNK_DATA 00000001800221a0     kernel32:KERNEL32.dll
 0002:000001a8       __imp_?__ExceptionPtrCreate@@YAXPEAX@Z 00000001800221a8     msvcprt:MSVCP140.dll
 0002:000001b0       __imp_?__ExceptionPtrCopy@@YAXPEAXPEBX@Z 00000001800221b0     msvcprt:MSVCP140.dll
 0002:000001b8       __imp_?__ExceptionPtrDestroy@@YAXPEAX@Z 00000001800221b8     msvcprt:MSVCP140.dll
 0002:000001c0       __imp_?__ExceptionPtrCurrentException@@YAXPEAX@Z 00000001800221c0     msvcprt:MSVCP140.dll
 0002:000001c8       __imp_?_Xlength_error@std@@YAXPEBD@Z 00000001800221c8     msvcprt:MSVCP140.dll
 0002:000001d0       __imp_?__ExceptionPtrRethrow@@YAXPEBX@Z 00000001800221d0     msvcprt:MSVCP140.dll
 0002:000001d8       __imp_?__ExceptionPtrCopyException@@YAXPEAXPEBX1@Z 00000001800221d8     msvcprt:MSVCP140.dll
 0002:000001e0       \177MSVCP140_NULL_THUNK_DATA 00000001800221e0     msvcprt:MSVCP140.dll
 0002:000001e8       __imp_memset               00000001800221e8     vcruntime:VCRUNTIME140.dll
 0002:000001f0       __imp___RTDynamicCast      00000001800221f0     vcruntime:VCRUNTIME140.dll
 0002:000001f8       __imp___C_specific_handler 00000001800221f8     vcruntime:VCRUNTIME140.dll
 0002:00000200       __imp__purecall            0000000180022200     vcruntime:VCRUNTIME140.dll
 0002:00000208       __imp_memcpy               0000000180022208     vcruntime:VCRUNTIME140.dll
 0002:00000210       __imp__CxxThrowException   0000000180022210     vcruntime:VCRUNTIME140.dll
 0002:00000218       __imp___current_exception_context 0000000180022218     vcruntime:VCRUNTIME140.dll
 0002:00000220       __imp___current_exception  0000000180022220     vcruntime:VCRUNTIME140.dll
 0002:00000228       __imp___std_type_info_destroy_list 0000000180022228     vcruntime:VCRUNTIME140.dll
 0002:00000230       __imp___RTtypeid           0000000180022230     vcruntime:VCRUNTIME140.dll
 0002:00000238       __imp___std_type_info_name 0000000180022238     vcruntime:VCRUNTIME140.dll
 0002:00000240       __imp___std_exception_destroy 0000000180022240     vcruntime:VCRUNTIME140.dll
 0002:00000248       __imp___std_exception_copy 0000000180022248     vcruntime:VCRUNTIME140.dll
 0002:00000250       __imp___std_terminate      0000000180022250     vcruntime:VCRUNTIME140.dll
 0002:00000258       __imp_strrchr              0000000180022258     vcruntime:VCRUNTIME140.dll
 0002:00000260       __imp_memmove              0000000180022260     vcruntime:VCRUNTIME140.dll
 0002:00000268       \177VCRUNTIME140_NULL_THUNK_DATA 0000000180022268     vcruntime:VCRUNTIME140.dll
 0002:00000270       __imp___CxxFrameHandler4   0000000180022270     vcruntime:VCRUNTIME140_1.dll
 0002:00000278       \177VCRUNTIME140_1_NULL_THUNK_DATA 0000000180022278     vcruntime:VCRUNTIME140_1.dll
 0002:00000280       __imp_getenv               0000000180022280     ucrt:api-ms-win-crt-environment-l1-1-0.dll
 0002:00000288       \177api-ms-win-crt-environment-l1-1-0_NULL_THUNK_DATA 0000000180022288     ucrt:api-ms-win-crt-environment-l1-1-0.dll
 0002:00000290       __imp_free                 0000000180022290     ucrt:api-ms-win-crt-heap-l1-1-0.dll
 0002:00000298       __imp_malloc               0000000180022298     ucrt:api-ms-win-crt-heap-l1-1-0.dll
 0002:000002a0       __imp__callnewh            00000001800222a0     ucrt:api-ms-win-crt-heap-l1-1-0.dll
 0002:000002a8       \177api-ms-win-crt-heap-l1-1-0_NULL_THUNK_DATA 00000001800222a8     ucrt:api-ms-win-crt-heap-l1-1-0.dll
 0002:000002b0       __imp__initialize_narrow_environment 00000001800222b0     ucrt:api-ms-win-crt-runtime-l1-1-0.dll
 0002:000002b8       __imp__initialize_onexit_table 00000001800222b8     ucrt:api-ms-win-crt-runtime-l1-1-0.dll
 0002:000002c0       __imp__register_onexit_function 00000001800222c0     ucrt:api-ms-win-crt-runtime-l1-1-0.dll
 0002:000002c8       __imp__execute_onexit_table 00000001800222c8     ucrt:api-ms-win-crt-runtime-l1-1-0.dll
 0002:000002d0       __imp__crt_atexit          00000001800222d0     ucrt:api-ms-win-crt-runtime-l1-1-0.dll
 0002:000002d8       __imp__cexit               00000001800222d8     ucrt:api-ms-win-crt-runtime-l1-1-0.dll
 0002:000002e0       __imp__initterm            00000001800222e0     ucrt:api-ms-win-crt-runtime-l1-1-0.dll
 0002:000002e8       __imp__initterm_e          00000001800222e8     ucrt:api-ms-win-crt-runtime-l1-1-0.dll
 0002:000002f0       __imp_strerror             00000001800222f0     ucrt:api-ms-win-crt-runtime-l1-1-0.dll
 0002:000002f8       __imp__configure_narrow_argv 00000001800222f8     ucrt:api-ms-win-crt-runtime-l1-1-0.dll
 0002:00000300       __imp_terminate            0000000180022300     ucrt:api-ms-win-crt-runtime-l1-1-0.dll
 0002:00000308       __imp__beginthreadex       0000000180022308     ucrt:api-ms-win-crt-runtime-l1-1-0.dll
 0002:00000310       __imp__seh_filter_dll      0000000180022310     ucrt:api-ms-win-crt-runtime-l1-1-0.dll
 0002:00000318       __imp__errno               0000000180022318     ucrt:api-ms-win-crt-runtime-l1-1-0.dll
 0002:00000320       __imp_abort                0000000180022320     ucrt:api-ms-win-crt-runtime-l1-1-0.dll
 0002:00000328       __imp_exit                 0000000180022328     ucrt:api-ms-win-crt-runtime-l1-1-0.dll
 0002:00000330       \177api-ms-win-crt-runtime-l1-1-0_NULL_THUNK_DATA 0000000180022330     ucrt:api-ms-win-crt-runtime-l1-1-0.dll
 0002:00000338       __imp_fflush               0000000180022338     ucrt:api-ms-win-crt-stdio-l1-1-0.dll
 0002:00000340       __imp_fputs                0000000180022340     ucrt:api-ms-win-crt-stdio-l1-1-0.dll
 0002:00000348       __imp___stdio_common_vfprintf 0000000180022348     ucrt:api-ms-win-crt-stdio-l1-1-0.dll
 0002:00000350       __imp___acrt_iob_func      0000000180022350     ucrt:api-ms-win-crt-stdio-l1-1-0.dll
 0002:00000358       __imp___stdio_common_vsprintf 0000000180022358     ucrt:api-ms-win-crt-stdio-l1-1-0.dll
 0002:00000360       \177api-ms-win-crt-stdio-l1-1-0_NULL_THUNK_DATA 0000000180022360     ucrt:api-ms-win-crt-stdio-l1-1-0.dll
 0002:00000368       __imp_strncpy_s            0000000180022368     ucrt:api-ms-win-crt-string-l1-1-0.dll
 0002:00000370       __imp_strncpy              0000000180022370     ucrt:api-ms-win-crt-string-l1-1-0.dll
 0002:00000378       __imp__strdup              0000000180022378     ucrt:api-ms-win-crt-string-l1-1-0.dll
 0002:00000380       __imp__wcsdup              0000000180022380     ucrt:api-ms-win-crt-string-l1-1-0.dll
 0002:00000388       __imp_strspn               0000000180022388     ucrt:api-ms-win-crt-string-l1-1-0.dll
 0002:00000390       \177api-ms-win-crt-string-l1-1-0_NULL_THUNK_DATA 0000000180022390     ucrt:api-ms-win-crt-string-l1-1-0.dll
 0002:00000398       __guard_check_icall_fptr   0000000180022398     MSVCRT:guard_support.obj
 0002:000003a0       __guard_xfg_check_icall_fptr 00000001800223a0     MSVCRT:guard_support.obj
 0002:000003a8       __guard_dispatch_icall_fptr 00000001800223a8     MSVCRT:guard_support.obj
 0002:000003b0       __guard_xfg_dispatch_icall_fptr 00000001800223b0     MSVCRT:guard_support.obj
 0002:000003b8       __guard_xfg_table_dispatch_icall_fptr 00000001800223b8     MSVCRT:guard_support.obj
 0002:000003c0       __xc_a                     00000001800223c0     MSVCRT:initializers.obj
 0002:000003d8       __xc_z                     00000001800223d8     MSVCRT:initializers.obj
 0002:000003e0       __xi_a                     00000001800223e0     MSVCRT:initializers.obj
 0002:000003f0       __xi_z                     00000001800223f0     MSVCRT:initializers.obj
 0002:000003f8       __xl_a                     00000001800223f8     MSVCRT:tlssup.obj
 0002:00000400       __xl_z                     0000000180022400     MSVCRT:tlssup.obj
 0002:00000408       __xp_a                     0000000180022408     MSVCRT:initializers.obj
 0002:00000410       __xp_z                     0000000180022410     MSVCRT:initializers.obj
 0002:00000418       __xt_a                     0000000180022418     MSVCRT:initializers.obj
 0002:00000420       __xt_z                     0000000180022420     MSVCRT:initializers.obj
 0002:00000438       ??_7type_info@@6B@         0000000180022438     MSVCRT:std_type_info_static.obj
 0002:00000450       ??_C@_1EC@JIJBPKFM@?$AAa?$AAp?$AAi?$AA?9?$AAm?$AAs?$AA?9?$AAw?$AAi?$AAn?$AA?9?$AAc?$AAo?$AAr?$AAe@ 0000000180022450     MSVCRT:thread_safe_statics.obj
 0002:00000498       ??_C@_1BK@MGMFAEKH@?$AAk?$AAe?$AAr?$AAn?$AAe?$AAl?$AA3?$AA2?$AA?4?$AAd?$AAl?$AAl@ 0000000180022498     MSVCRT:thread_safe_statics.obj
 0002:000004b8       _pRawDllMain               00000001800224b8     MSVCRT:dll_dllmain.obj
 0002:000004b8       _pDefaultRawDllMain        00000001800224b8     MSVCRT:dll_dllmain.obj
 0002:000004c8       ??_7exception@std@@6B@     00000001800224c8     MSVCRT:throw_bad_alloc.obj
 0002:000004e0       ??_7bad_alloc@std@@6B@     00000001800224e0     MSVCRT:throw_bad_alloc.obj
 0002:000004f8       ??_7bad_array_new_length@std@@6B@ 00000001800224f8     MSVCRT:throw_bad_alloc.obj
 0002:00000508       ??_C@_0BF@KINCDENJ@bad?5array?5new?5length@ 0000000180022508     MSVCRT:throw_bad_alloc.obj
 0002:00000568       ?SyncType_GlobalLock@tbb@@3PEB_WEB 0000000180022568     itt_notify.obj
 0002:00000570       ?SyncObj_WorkerLifeCycleMgmt@tbb@@3PEB_WEB 0000000180022570     itt_notify.obj
 0002:00000578       ?SyncObj_SchedulerInitialization@tbb@@3PEB_WEB 0000000180022578     itt_notify.obj
 0002:00000580       ?SyncType_Scheduler@tbb@@3PEB_WEB 0000000180022580     itt_notify.obj
 0002:00000588       ?SyncObj_WorkerTaskPool@tbb@@3PEB_WEB 0000000180022588     itt_notify.obj
 0002:00000590       ?SyncObj_TaskStealingLoop@tbb@@3PEB_WEB 0000000180022590     itt_notify.obj
 0002:00000598       ?SyncObj_ContextsList@tbb@@3PEB_WEB 0000000180022598     itt_notify.obj
 0002:000005a0       ?SyncObj_Mailbox@tbb@@3PEB_WEB 00000001800225a0     itt_notify.obj
 0002:000005a8       ?SyncObj_TaskStream@tbb@@3PEB_WEB 00000001800225a8     itt_notify.obj
 0002:000005b0       ?SyncObj_TaskReturnList@tbb@@3PEB_WEB 00000001800225b0     itt_notify.obj
 0002:000005b8       ?SyncObj_TaskPoolSpinning@tbb@@3PEB_WEB 00000001800225b8     itt_notify.obj
 0002:00000a88       ??_7concurrent_queue_base_v3@internal@tbb@@6B@ 0000000180022a88     concurrent_queue.obj
 0002:00000ab8       ??_C@_0BB@GHDLJDEE@libittnotify?4dll@ 0000000180022ab8     itt_notify.obj
 0002:00000acc       ??_C@_03NFKEKGGK@all@      0000000180022acc     itt_notify.obj
 0002:00000ad0       ??_C@_07MMBOFDEG@control@  0000000180022ad0     itt_notify.obj
 0002:00000ad8       ??_C@_06FJHNOCKE@thread@   0000000180022ad8     itt_notify.obj
 0002:00000ae0       ??_C@_04KJJCFCK@mark@      0000000180022ae0     itt_notify.obj
 0002:00000ae8       ??_C@_04JNABKDKF@sync@     0000000180022ae8     itt_notify.obj
 0002:00000af0       ??_C@_05DEEMBJFM@fsync@    0000000180022af0     itt_notify.obj
 0002:00000af8       ??_C@_03IGHFHLNJ@jit@      0000000180022af8     itt_notify.obj
 0002:00000afc       ??_C@_05NCCFOPHA@model@    0000000180022afc     itt_notify.obj
 0002:00000b08       ??_C@_07HDOCMLOI@counter@  0000000180022b08     itt_notify.obj
 0002:00000b10       ??_C@_05MIJNFGED@frame@    0000000180022b10     itt_notify.obj
 0002:00000b18       ??_C@_06LIGKBDMB@stitch@   0000000180022b18     itt_notify.obj
 0002:00000b20       ??_C@_04PKENOLLO@heap@     0000000180022b20     itt_notify.obj
 0002:00000b28       ??_C@_09GNENBKCD@structure@ 0000000180022b28     itt_notify.obj
 0002:00000b38       ??_C@_08OGNBOPN@suppress@  0000000180022b38     itt_notify.obj
 0002:00000b44       ??_C@_06FGACJBDJ@arrays@   0000000180022b44     itt_notify.obj
 0002:00000b50       ??_C@_0BB@MEEBFJKA@KMP_FOR_TPROFILE@ 0000000180022b50     itt_notify.obj
 0002:00000b68       ??_C@_0P@PHKFPIJA@KMP_FOR_TCHECK@ 0000000180022b68     itt_notify.obj
 0002:00000b78       ??_C@_0BF@PJOOOGND@__itt_domain_createA@ 0000000180022b78     itt_notify.obj
 0002:00000b90       ??_C@_0BF@OFHGFDAE@__itt_domain_createW@ 0000000180022b90     itt_notify.obj
 0002:00000ba8       ??_C@_0BM@KLFLEJAJ@__itt_string_handle_createA@ 0000000180022ba8     itt_notify.obj
 0002:00000bc8       ??_C@_0BM@LHMDPMNO@__itt_string_handle_createW@ 0000000180022bc8     itt_notify.obj
 0002:00000be8       ??_C@_0BG@EMALNLPB@__itt_counter_createA@ 0000000180022be8     itt_notify.obj
 0002:00000c00       ??_C@_0BG@FAJDGOCG@__itt_counter_createW@ 0000000180022c00     itt_notify.obj
 0002:00000c18       ??_C@_0BM@IAMHAGDP@__itt_counter_create_typedA@ 0000000180022c18     itt_notify.obj
 0002:00000c38       ??_C@_0BM@JMFPLDOI@__itt_counter_create_typedW@ 0000000180022c38     itt_notify.obj
 0002:00000c58       ??_C@_0M@OBBFCECB@__itt_pause@ 0000000180022c58     itt_notify.obj
 0002:00000c68       ??_C@_0N@PMDEDCGD@__itt_resume@ 0000000180022c68     itt_notify.obj
 0002:00000c78       ??_C@_0BH@NLDAAGM@__itt_thread_set_nameA@ 0000000180022c78     itt_notify.obj
 0002:00000c90       ??_C@_0BH@BBCLLFLL@__itt_thread_set_nameW@ 0000000180022c90     itt_notify.obj
 0002:00000ca8       ??_C@_0BE@GBGGMKDN@__itt_thread_ignore@ 0000000180022ca8     itt_notify.obj
 0002:00000cc0       ??_C@_0BE@PKPGFCJA@__itt_thr_name_setA@ 0000000180022cc0     itt_notify.obj
 0002:00000cd8       ??_C@_0BE@OGGOOHEH@__itt_thr_name_setW@ 0000000180022cd8     itt_notify.obj
 0002:00000cf0       ??_C@_0BB@NAOEIHEA@__itt_thr_ignore@ 0000000180022cf0     itt_notify.obj
 0002:00000d08       ??_C@_0BE@FOGOAMMO@__itt_enable_attach@ 0000000180022d08     itt_notify.obj
 0002:00000d20       ??_C@_0N@CKFBNEAI@__itt_detach@ 0000000180022d20     itt_notify.obj
 0002:00000d30       ??_C@_0BD@PFHNCEK@__itt_sync_createA@ 0000000180022d30     itt_notify.obj
 0002:00000d48       ??_C@_0BD@BDMPGHJN@__itt_sync_createW@ 0000000180022d48     itt_notify.obj
 0002:00000d60       ??_C@_0BD@FKOJKJGJ@__itt_sync_renameA@ 0000000180022d60     itt_notify.obj
 0002:00000d78       ??_C@_0BD@EGHBBMLO@__itt_sync_renameW@ 0000000180022d78     itt_notify.obj
 0002:00000d90       ??_C@_0BD@OFAHOGJG@__itt_sync_destroy@ 0000000180022d90     itt_notify.obj
 0002:00000da8       ??_C@_0BD@CPKFKJEO@__itt_sync_prepare@ 0000000180022da8     itt_notify.obj
 0002:00000dc0       ??_C@_0BC@MCENPEOO@__itt_sync_cancel@ 0000000180022dc0     itt_notify.obj
 0002:00000dd8       ??_C@_0BE@GIFMGCLF@__itt_sync_acquired@ 0000000180022dd8     itt_notify.obj
 0002:00000df0       ??_C@_0BF@DIEOIMOH@__itt_sync_releasing@ 0000000180022df0     itt_notify.obj
 0002:00000e08       ??_C@_0BE@MOLOMFNM@__itt_suppress_push@ 0000000180022e08     itt_notify.obj
 0002:00000e20       ??_C@_0BD@KGNENPHI@__itt_suppress_pop@ 0000000180022e20     itt_notify.obj
 0002:00000e38       ??_C@_0BK@EJIICLPM@__itt_suppress_mark_range@ 0000000180022e38     itt_notify.obj
 0002:00000e58       ??_C@_0BL@GLLGHEDD@__itt_suppress_clear_range@ 0000000180022e58     itt_notify.obj
 0002:00000e78       ??_C@_0BH@IDPLHABA@__itt_model_site_begin@ 0000000180022e78     itt_notify.obj
 0002:00000e90       ??_C@_0BF@HJKONEDB@__itt_model_site_end@ 0000000180022e90     itt_notify.obj
 0002:00000ea8       ??_C@_0BH@MIPMFKJM@__itt_model_task_begin@ 0000000180022ea8     itt_notify.obj
 0002:00000ec0       ??_C@_0BF@DBIHPNLD@__itt_model_task_end@ 0000000180022ec0     itt_notify.obj
 0002:00000ed8       ??_C@_0BJ@LAGBGFNL@__itt_model_lock_acquire@ 0000000180022ed8     itt_notify.obj
 0002:00000ef8       ??_C@_0BJ@DKFLKCDG@__itt_model_lock_release@ 0000000180022ef8     itt_notify.obj
 0002:00000f18       ??_C@_0BO@CMNEKAED@__itt_model_record_allocation@ 0000000180022f18     itt_notify.obj
 0002:00000f38       ??_C@_0CA@BLKMEFKM@__itt_model_record_deallocation@ 0000000180022f38     itt_notify.obj
 0002:00000f58       ??_C@_0BL@EMIILPPM@__itt_model_induction_uses@ 0000000180022f58     itt_notify.obj
 0002:00000f78       ??_C@_0BL@JJCGLNKA@__itt_model_reduction_uses@ 0000000180022f78     itt_notify.obj
 0002:00000f98       ??_C@_0BJ@ECNIEHOA@__itt_model_observe_uses@ 0000000180022f98     itt_notify.obj
 0002:00000fb8       ??_C@_0BH@KLLGKJEK@__itt_model_clear_uses@ 0000000180022fb8     itt_notify.obj
 0002:00000fd0       ??_C@_0BI@OIMOCAIH@__itt_model_site_beginW@ 0000000180022fd0     itt_notify.obj
 0002:00000fe8       ??_C@_0BI@MILOIKG@__itt_model_task_beginW@ 0000000180022fe8     itt_notify.obj
 0002:00001000       ??_C@_0BM@NIKMILDP@__itt_model_iteration_taskW@ 0000000180023000     itt_notify.obj
 0002:00001020       ??_C@_0BI@PEFGJFFA@__itt_model_site_beginA@ 0000000180023020     itt_notify.obj
 0002:00001038       ??_C@_0BJ@DHFDAHGI@__itt_model_site_beginAL@ 0000000180023038     itt_notify.obj
 0002:00001058       ??_C@_0BI@BABDFNHB@__itt_model_task_beginA@ 0000000180023058     itt_notify.obj
 0002:00001070       ??_C@_0BJ@HLNOFCPO@__itt_model_task_beginAL@ 0000000180023070     itt_notify.obj
 0002:00001090       ??_C@_0BM@MEDEDOOI@__itt_model_iteration_taskA@ 0000000180023090     itt_notify.obj
 0002:000010b0       ??_C@_0BN@PCNJFOHN@__itt_model_iteration_taskAL@ 00000001800230b0     itt_notify.obj
 0002:000010d0       ??_C@_0BH@MNHDFFCN@__itt_model_site_end_2@ 00000001800230d0     itt_notify.obj
 0002:000010e8       ??_C@_0BH@IGHEHPKB@__itt_model_task_end_2@ 00000001800230e8     itt_notify.obj
 0002:00001100       ??_C@_0BL@NFIEAEJO@__itt_model_lock_acquire_2@ 0000000180023100     itt_notify.obj
 0002:00001120       ??_C@_0BL@DLFEFEBG@__itt_model_lock_release_2@ 0000000180023120     itt_notify.obj
 0002:00001140       ??_C@_0BL@FOHNDHC@__itt_model_aggregate_task@ 0000000180023140     itt_notify.obj
 0002:00001160       ??_C@_0BJ@MAMFFHFB@__itt_model_disable_push@ 0000000180023160     itt_notify.obj
 0002:00001180       ??_C@_0BI@GMOGAHA@__itt_model_disable_pop@ 0000000180023180     itt_notify.obj
 0002:00001198       ??_C@_0BM@JODLENCC@__itt_heap_function_createA@ 0000000180023198     itt_notify.obj
 0002:000011b8       ??_C@_0BM@ICKDPIPF@__itt_heap_function_createW@ 00000001800231b8     itt_notify.obj
 0002:000011d8       ??_C@_0BK@DMCMAEMK@__itt_heap_allocate_begin@ 00000001800231d8     itt_notify.obj
 0002:000011f8       ??_C@_0BI@BKGPODF@__itt_heap_allocate_end@ 00000001800231f8     itt_notify.obj
 0002:00001210       ??_C@_0BG@NCFEDJCH@__itt_heap_free_begin@ 0000000180023210     itt_notify.obj
 0002:00001228       ??_C@_0BE@IBCGGMHF@__itt_heap_free_end@ 0000000180023228     itt_notify.obj
 0002:00001240       ??_C@_0BM@DNPPEBNN@__itt_heap_reallocate_begin@ 0000000180023240     itt_notify.obj
 0002:00001260       ??_C@_0BK@FIIKJCHI@__itt_heap_reallocate_end@ 0000000180023260     itt_notify.obj
 0002:00001280       ??_C@_0CB@KBHILEOD@__itt_heap_internal_access_begi@ 0000000180023280     itt_notify.obj
 0002:000012a8       ??_C@_0BP@BFPCKPOF@__itt_heap_internal_access_end@ 00000001800232a8     itt_notify.obj
 0002:000012c8       ??_C@_0CG@NEGAEGJL@__itt_heap_record_memory_growth@ 00000001800232c8     itt_notify.obj
 0002:000012f0       ??_C@_0CE@EDHBOICD@__itt_heap_record_memory_growth@ 00000001800232f0     itt_notify.obj
 0002:00001318       ??_C@_0BL@IHEFPDEL@__itt_heap_reset_detection@ 0000000180023318     itt_notify.obj
 0002:00001338       ??_C@_0BC@EGKDFPLB@__itt_heap_record@ 0000000180023338     itt_notify.obj
 0002:00001350       ??_C@_0BA@NONPBKLG@__itt_id_create@ 0000000180023350     itt_notify.obj
 0002:00001360       ??_C@_0BB@CBOOIDDL@__itt_id_destroy@ 0000000180023360     itt_notify.obj
 0002:00001378       ??_C@_0BE@FLOGCMMH@__itt_get_timestamp@ 0000000180023378     itt_notify.obj
 0002:00001390       ??_C@_0BD@BNMNCHKB@__itt_region_begin@ 0000000180023390     itt_notify.obj
 0002:000013a8       ??_C@_0BB@NDFOOFIC@__itt_region_end@ 00000001800233a8     itt_notify.obj
 0002:000013c0       ??_C@_0BF@DPIEHAGN@__itt_frame_begin_v3@ 00000001800233c0     itt_notify.obj
 0002:000013d8       ??_C@_0BD@EHKFFIBH@__itt_frame_end_v3@ 00000001800233d8     itt_notify.obj
 0002:000013f0       ??_C@_0BG@BPCLPPEH@__itt_frame_submit_v3@ 00000001800233f0     itt_notify.obj
 0002:00001408       ??_C@_0BB@GGFEPPDE@__itt_task_group@ 0000000180023408     itt_notify.obj
 0002:00001420       ??_C@_0BB@OAJAGIDB@__itt_task_begin@ 0000000180023420     itt_notify.obj
 0002:00001438       ??_C@_0BE@FMMIBDOD@__itt_task_begin_fn@ 0000000180023438     itt_notify.obj
 0002:00001450       ??_C@_0P@NALCCCCE@__itt_task_end@ 0000000180023450     itt_notify.obj
 0002:00001460       ??_C@_0BF@MDKFBHAH@__itt_counter_inc_v3@ 0000000180023460     itt_notify.obj
 0002:00001478       ??_C@_0BL@HIGIHDCP@__itt_counter_inc_delta_v3@ 0000000180023478     itt_notify.obj
 0002:00001498       ??_C@_0BF@MILFIGAE@__itt_counter_dec_v3@ 0000000180023498     itt_notify.obj
 0002:000014b0       ??_C@_0BL@EONGLHFP@__itt_counter_dec_delta_v3@ 00000001800234b0     itt_notify.obj
 0002:000014d0       ??_C@_0N@HAAFEAGA@__itt_marker@ 00000001800234d0     itt_notify.obj
 0002:000014e0       ??_C@_0BD@IGOPKBOL@__itt_metadata_add@ 00000001800234e0     itt_notify.obj
 0002:000014f8       ??_C@_0BI@NEEFELOF@__itt_metadata_str_addA@ 00000001800234f8     itt_notify.obj
 0002:00001510       ??_C@_0BI@MINNPODC@__itt_metadata_str_addW@ 0000000180023510     itt_notify.obj
 0002:00001528       ??_C@_0BO@OPDDBKND@__itt_relation_add_to_current@ 0000000180023528     itt_notify.obj
 0002:00001548       ??_C@_0BD@OKAHNEKP@__itt_relation_add@ 0000000180023548     itt_notify.obj
 0002:00001560       ??_C@_0BE@PFMCBGMI@__itt_event_createA@ 0000000180023560     itt_notify.obj
 0002:00001578       ??_C@_0BE@OJFKKDBP@__itt_event_createW@ 0000000180023578     itt_notify.obj
 0002:00001590       ??_C@_0BC@CFNFCMCG@__itt_event_start@ 0000000180023590     itt_notify.obj
 0002:000015a8       ??_C@_0BA@IJAPHNDA@__itt_event_end@ 00000001800235a8     itt_notify.obj
 0002:000015b8       ??_C@_0BF@NPFOLKPO@__itt_sync_set_nameA@ 00000001800235b8     itt_notify.obj
 0002:000015d0       ??_C@_0BF@MDMGAPCJ@__itt_sync_set_nameW@ 00000001800235d0     itt_notify.obj
 0002:000015e8       ??_C@_0BI@CHABHBNF@__itt_notify_sync_nameA@ 00000001800235e8     itt_notify.obj
 0002:00001600       ??_C@_0BI@DLJJMEAC@__itt_notify_sync_nameW@ 0000000180023600     itt_notify.obj
 0002:00001618       ??_C@_0BK@EPNEOEMG@__itt_notify_sync_prepare@ 0000000180023618     itt_notify.obj
 0002:00001638       ??_C@_0BJ@DIOKJHB@__itt_notify_sync_cancel@ 0000000180023638     itt_notify.obj
 0002:00001658       ??_C@_0BL@ILFPBIOK@__itt_notify_sync_acquired@ 0000000180023658     itt_notify.obj
 0002:00001678       ??_C@_0BM@MDHJMDPI@__itt_notify_sync_releasing@ 0000000180023678     itt_notify.obj
 0002:00001698       ??_C@_0BC@FOINABEG@__itt_memory_read@ 0000000180023698     itt_notify.obj
 0002:000016b0       ??_C@_0BD@NMPEKHPI@__itt_memory_write@ 00000001800236b0     itt_notify.obj
 0002:000016c8       ??_C@_0BE@PDNEALBC@__itt_memory_update@ 00000001800236c8     itt_notify.obj
 0002:000016e0       ??_C@_0BA@OOLJINGG@__itt_state_get@ 00000001800236e0     itt_notify.obj
 0002:000016f0       ??_C@_0BA@DBMCENKO@__itt_state_set@ 00000001800236f0     itt_notify.obj
 0002:00001700       ??_C@_0BD@OMOHDNKK@__itt_obj_mode_set@ 0000000180023700     itt_notify.obj
 0002:00001718       ??_C@_0BD@EBCLOJDM@__itt_thr_mode_set@ 0000000180023718     itt_notify.obj
 0002:00001730       ??_C@_0BE@BLJCOOCN@__itt_frame_createA@ 0000000180023730     itt_notify.obj
 0002:00001748       ??_C@_0BE@HAKFLPK@__itt_frame_createW@ 0000000180023748     itt_notify.obj
 0002:00001760       ??_C@_0BI@BNNKGPIB@__itt_pt_region_createA@ 0000000180023760     itt_notify.obj
 0002:00001778       ??_C@_0BI@BECNKFG@__itt_pt_region_createW@ 0000000180023778     itt_notify.obj
 0002:00001790       ??_C@_0BC@HCNKKGME@__itt_frame_begin@ 0000000180023790     itt_notify.obj
 0002:000017a8       ??_C@_0BA@ECPMFCGG@__itt_frame_end@ 00000001800237a8     itt_notify.obj
 0002:000017b8       ??_C@_0BG@KGFLOPCN@__itt_counter_destroy@ 00000001800237b8     itt_notify.obj
 0002:000017d0       ??_C@_0BC@JMKIDDKB@__itt_counter_inc@ 00000001800237d0     itt_notify.obj
 0002:000017e8       ??_C@_0BI@BNDIOJN@__itt_counter_inc_delta@ 00000001800237e8     itt_notify.obj
 0002:00001800       ??_C@_0BC@GCJHAEJN@__itt_counter_dec@ 0000000180023800     itt_notify.obj
 0002:00001818       ??_C@_0BI@HGHIJLPA@__itt_counter_dec_delta@ 0000000180023818     itt_notify.obj
 0002:00001830       ??_C@_0BI@BLEEJDDA@__itt_counter_set_value@ 0000000180023830     itt_notify.obj
 0002:00001848       ??_C@_0BL@DFCCFMBK@__itt_counter_set_value_ex@ 0000000180023848     itt_notify.obj
 0002:00001868       ??_C@_0BD@PMJJPFNK@__itt_mark_createA@ 0000000180023868     itt_notify.obj
 0002:00001880       ??_C@_0BD@OAABEAAN@__itt_mark_createW@ 0000000180023880     itt_notify.obj
 0002:00001898       ??_C@_0M@CAFHBOLD@__itt_markA@ 0000000180023898     itt_notify.obj
 0002:000018a8       ??_C@_0M@DMMPKLGE@__itt_markW@ 00000001800238a8     itt_notify.obj
 0002:000018b8       ??_C@_0P@CFDOAOOE@__itt_mark_off@ 00000001800238b8     itt_notify.obj
 0002:000018c8       ??_C@_0BD@MBBPNJCH@__itt_mark_globalA@ 00000001800238c8     itt_notify.obj
 0002:000018e0       ??_C@_0BD@NNIHGMPA@__itt_mark_globalW@ 00000001800238e0     itt_notify.obj
 0002:000018f8       ??_C@_0BG@CDJIJGAC@__itt_mark_global_off@ 00000001800238f8     itt_notify.obj
 0002:00001910       ??_C@_0BK@EPFIOCIO@__itt_stack_caller_create@ 0000000180023910     itt_notify.obj
 0002:00001930       ??_C@_0BL@JHNLMFN@__itt_stack_caller_destroy@ 0000000180023930     itt_notify.obj
 0002:00001950       ??_C@_0BJ@GAJNHHI@__itt_stack_callee_enter@ 0000000180023950     itt_notify.obj
 0002:00001970       ??_C@_0BJ@CKPCIJLD@__itt_stack_callee_leave@ 0000000180023970     itt_notify.obj
 0002:00001990       ??_C@_0BK@DDICILFO@__itt_clock_domain_create@ 0000000180023990     itt_notify.obj
 0002:000019b0       ??_C@_0BJ@NEHPBEIJ@__itt_clock_domain_reset@ 00000001800239b0     itt_notify.obj
 0002:000019d0       ??_C@_0BD@FNAGFCCD@__itt_id_create_ex@ 00000001800239d0     itt_notify.obj
 0002:000019e8       ??_C@_0BE@EFLGOLGG@__itt_id_destroy_ex@ 00000001800239e8     itt_notify.obj
 0002:00001a00       ??_C@_0BE@ECBGBIGN@__itt_task_begin_ex@ 0000000180023a00     itt_notify.obj
 0002:00001a18       ??_C@_0BH@GFGAIAHE@__itt_task_begin_fn_ex@ 0000000180023a18     itt_notify.obj
 0002:00001a30       ??_C@_0BC@IHANJPKN@__itt_task_end_ex@ 0000000180023a30     itt_notify.obj
 0002:00001a48       ??_C@_0BM@LOFKKKAI@__itt_task_begin_overlapped@ 0000000180023a48     itt_notify.obj
 0002:00001a68       ??_C@_0BP@OLNBFIEO@__itt_task_begin_overlapped_ex@ 0000000180023a68     itt_notify.obj
 0002:00001a88       ??_C@_0BK@MBKJKMLA@__itt_task_end_overlapped@ 0000000180023a88     itt_notify.obj
 0002:00001aa8       ??_C@_0BN@FCHCPDLJ@__itt_task_end_overlapped_ex@ 0000000180023aa8     itt_notify.obj
 0002:00001ac8       ??_C@_0BA@PCFAJFBL@__itt_marker_ex@ 0000000180023ac8     itt_notify.obj
 0002:00001ad8       ??_C@_0BO@IBJHPIEA@__itt_metadata_add_with_scope@ 0000000180023ad8     itt_notify.obj
 0002:00001af8       ??_C@_0CD@DBMMAEJ@__itt_metadata_str_add_with_sco@ 0000000180023af8     itt_notify.obj
 0002:00001b20       ??_C@_0CD@BPIEHFJO@__itt_metadata_str_add_with_sco@ 0000000180023b20     itt_notify.obj
 0002:00001b48       ??_C@_0CB@LKKGPFIK@__itt_relation_add_to_current_e@ 0000000180023b48     itt_notify.obj
 0002:00001b70       ??_C@_0BG@JDIAGKMO@__itt_relation_add_ex@ 0000000180023b70     itt_notify.obj
 0002:00001b88       ??_C@_0BJ@DABHBHOM@__itt_track_group_create@ 0000000180023b88     itt_notify.obj
 0002:00001ba8       ??_C@_0BD@JAMANPOD@__itt_track_create@ 0000000180023ba8     itt_notify.obj
 0002:00001bc0       ??_C@_0BA@LBIEJOAG@__itt_set_track@ 0000000180023bc0     itt_notify.obj
 0002:00001bd0       ??_C@_0BC@LLDNPJMG@__itt_api_version@ 0000000180023bd0     itt_notify.obj
 0002:00001be8       ??_C@_0P@BPBIAPKG@__itt_av_saveA@ 0000000180023be8     itt_notify.obj
 0002:00001bf8       ??_C@_0P@DIALKHB@__itt_av_saveW@ 0000000180023bf8     itt_notify.obj
 0002:00001c08       ??_C@_0BD@OLAPBGOI@__itt_module_loadA@ 0000000180023c08     itt_notify.obj
 0002:00001c20       ??_C@_0BD@PHJHKDDP@__itt_module_loadW@ 0000000180023c20     itt_notify.obj
 0002:00001c38       ??_C@_0BF@DALCJNFN@INTEL_LIBITTNOTIFY64@ 0000000180023c38     itt_notify.obj
 0002:00001c50       ??_C@_0BH@BCIELMCH@INTEL_ITTNOTIFY_GROUPS@ 0000000180023c50     itt_notify.obj
 0002:00001c68       ??_C@_03IJOFBOLG@?0?$DL?5@ 0000000180023c68     itt_notify.obj
 0002:00001c70       ??_C@_0P@GMFMFMGH@__itt_api_init@ 0000000180023c70     itt_notify.obj
 0002:00001c80       ??_C@_0P@IJPIIJJG@__itt_api_fini@ 0000000180023c80     itt_notify.obj
 0002:00001c90       ??_C@_1BM@HPHMLNHL@?$AAT?$AAb?$AAb?$AAG?$AAl?$AAo?$AAb?$AAa?$AAl?$AAL?$AAo?$AAc?$AAk@ 0000000180023c90     itt_notify.obj
 0002:00001cb0       ??_C@_1BE@HCOPGFC@?$AA?$CF?$AAC?$AAo?$AAn?$AAs?$AAt?$AAa?$AAn?$AAt@ 0000000180023cb0     itt_notify.obj
 0002:00001cc8       ??_C@_1DG@DAINFCM@?$AAT?$AAb?$AAb?$AAS?$AAc?$AAh?$AAe?$AAd?$AAu?$AAl?$AAe?$AAr?$AAI?$AAn?$AAi@ 0000000180023cc8     itt_notify.obj
 0002:00001d00       ??_C@_1BM@LJBJJICB@?$AAT?$AAB?$AAB?$AA?5?$AAS?$AAc?$AAh?$AAe?$AAd?$AAu?$AAl?$AAe?$AAr@ 0000000180023d00     itt_notify.obj
 0002:00001d20       ??_C@_0BA@NAPEMIJE@scalable_malloc@ 0000000180023d20     cache_aligned_allocator.obj
 0002:00001d30       ??_C@_0O@IMDKFEIF@scalable_free@ 0000000180023d30     cache_aligned_allocator.obj
 0002:00001d40       ??_C@_0BI@IFMFIIAC@scalable_aligned_malloc@ 0000000180023d40     cache_aligned_allocator.obj
 0002:00001d58       ??_C@_0BG@IEFKBPOM@scalable_aligned_free@ 0000000180023d58     cache_aligned_allocator.obj
 0002:00001d70       ??_C@_0O@FOJJPCPH@tbbmalloc?4dll@ 0000000180023d70     cache_aligned_allocator.obj
 0002:00001d80       ??_C@_06GLDDLHNF@malloc@   0000000180023d80     cache_aligned_allocator.obj
 0002:00001d88       ??_C@_09MCKBLNND@ALLOCATOR@ 0000000180023d88     cache_aligned_allocator.obj
 0002:00001d98       ??_C@_0BN@OAIFFPEB@TLS?5not?5allocated?5for?5filter@ 0000000180023d98     pipeline.obj
 0002:00001dc0       ??_7task@tbb@@6B@          0000000180023dc0     pipeline.obj
 0002:00001de0       ??_7pipeline_root_task@internal@tbb@@6B@ 0000000180023de0     pipeline.obj
 0002:00001e00       ??_7pipeline@tbb@@6B@      0000000180023e00     pipeline.obj
 0002:00001e10       ??_7filter@tbb@@6B@        0000000180023e10     pipeline.obj
 0002:00001e30       ??_7stage_task@internal@tbb@@6B@ 0000000180023e30     pipeline.obj
 0002:00001e48       ??_C@_11LOCGONAA@@         0000000180023e48     queuing_mutex.obj
 0002:00001e50       ??_C@_1CG@PJPBKEPC@?$AAt?$AAb?$AAb?$AA?3?$AA?3?$AAq?$AAu?$AAe?$AAu?$AAi?$AAn?$AAg?$AA_?$AAm?$AAu@ 0000000180023e50     queuing_mutex.obj
 0002:00001e78       ??_C@_1CM@KJEIFCEB@?$AAt?$AAb?$AAb?$AA?3?$AA?3?$AAq?$AAu?$AAe?$AAu?$AAi?$AAn?$AAg?$AA_?$AAr?$AAw@ 0000000180023e78     queuing_rw_mutex.obj
 0002:00001ea8       ??_C@_1CG@PLAHABG@?$AAt?$AAb?$AAb?$AA?3?$AA?3?$AAs?$AAp?$AAi?$AAn?$AA_?$AAr?$AAw?$AA_?$AAm?$AAu@ 0000000180023ea8     spin_rw_mutex.obj
 0002:00001ed0       ??_C@_1CM@JOBNLJOH@?$AAt?$AAb?$AAb?$AA?3?$AA?3?$AAx?$AA8?$AA6?$AA_?$AAr?$AAt?$AAm?$AA_?$AAr?$AAw@ 0000000180023ed0     x86_rtm_rw_mutex.obj
 0002:00001f00       ??_C@_1CA@OBNAGBIB@?$AAt?$AAb?$AAb?$AA?3?$AA?3?$AAs?$AAp?$AAi?$AAn?$AA_?$AAm?$AAu?$AAt?$AAe?$AAx@ 0000000180023f00     spin_mutex.obj
 0002:00001f20       ??_C@_1CM@JDGEMKJN@?$AAp?$AAp?$AAl?$AA?3?$AA?3?$AAc?$AAr?$AAi?$AAt?$AAi?$AAc?$AAa?$AAl?$AA_?$AAs@ 0000000180023f20     critical_section.obj
 0002:00001f50       ??_C@_0EH@MIDOCILP@mutex?3?3scoped_lock?3?5deadlock?5ca@ 0000000180023f50     mutex.obj
 0002:00001f98       ??_C@_1BG@ODPLMIDC@?$AAt?$AAb?$AAb?$AA?3?$AA?3?$AAm?$AAu?$AAt?$AAe?$AAx@ 0000000180023f98     mutex.obj
 0002:00001fb0       ??_C@_1CK@OOCNHJOL@?$AAt?$AAb?$AAb?$AA?3?$AA?3?$AAr?$AAe?$AAc?$AAu?$AAr?$AAs?$AAi?$AAv?$AAe?$AA_@ 0000000180023fb0     recursive_mutex.obj
 0002:00001fe0       ??_C@_0BM@HLJJNPAH@InitializeConditionVariable@ 0000000180023fe0     condition_variable.obj
 0002:00002000       ??_C@_0BJ@JEBJOJFJ@SleepConditionVariableCS@ 0000000180024000     condition_variable.obj
 0002:00002020       ??_C@_0BG@BFNILBLN@WakeConditionVariable@ 0000000180024020     condition_variable.obj
 0002:00002038       ??_C@_0BJ@PGPPEPCC@WakeAllConditionVariable@ 0000000180024038     condition_variable.obj
 0002:00002058       ??_C@_0N@HAOHNMDE@Kernel32?4dll@ 0000000180024058     condition_variable.obj
 0002:00002068       ??_C@_0BB@HLANDHKP@tbb_thread?3?3join@ 0000000180024068     tbb_thread.obj
 0002:00002080       ??_C@_0BD@EHCAPBKM@tbb_thread?3?3detach@ 0000000180024080     tbb_thread.obj
 0002:00002098       ??_C@_0BA@HNJHLFML@__beginthreadex@ 0000000180024098     tbb_thread.obj
 0002:000020a8       ??_C@_1CA@CAIBFCHC@?$AAR?$AAM?$AAL?$AA?5?$AAT?$AAh?$AAr?$AA?5?$AAM?$AAo?$AAn?$AAi?$AAt?$AAo?$AAr@ 00000001800240a8     private_server.obj
 0002:000020c8       ??_C@_0CP@ECLIENFE@thread_monitor?3?3launch?3?5_begint@ 00000001800240c8     private_server.obj
 0002:00002100       ??_7private_server@rml@internal@tbb@@6B@ 0000000180024100     private_server.obj
 0002:00002148       ??_C@_0BD@CAMIMILA@__RML_open_factory@ 0000000180024148     rml_tbb.obj
 0002:00002160       ??_C@_0BG@HALCIFOA@__TBB_make_rml_server@ 0000000180024160     rml_tbb.obj
 0002:00002178       ??_C@_0BE@HJHNNOAB@__RML_close_factory@ 0000000180024178     rml_tbb.obj
 0002:00002190       ??_C@_0BP@ODNGMCC@__TBB_call_with_my_server_info@ 0000000180024190     rml_tbb.obj
 0002:000021b0       ??_C@_08NACEEPJJ@irml?4dll@ 00000001800241b0     rml_tbb.obj
 0002:000021c8       ??_7improper_lock@tbb@@6B@ 00000001800241c8     tbb_misc.obj
 0002:000021e0       ??_7bad_last_alloc@tbb@@6B@ 00000001800241e0     tbb_misc.obj
 0002:000021f0       ??_C@_0BC@EOODALEL@Unknown?5exception@ 00000001800241f0     tbb_misc.obj
 0002:00002208       ??_C@_0P@GHFPNOJB@bad?5allocation@ 0000000180024208     tbb_misc.obj
 0002:00002218       ??_C@_0CL@PHAMFLPE@Assertion?5?$CFs?5failed?5on?5line?5?$CFd?5@ 0000000180024218     tbb_misc.obj
 0002:00002248       ??_C@_0BK@GNEKDGNN@Detailed?5description?3?5?$CFs?6@ 0000000180024248     tbb_misc.obj
 0002:00002268       ??_C@_0BB@IDICOHEL@TBB?5Warning?3?5?$CFs?6@ 0000000180024268     tbb_misc.obj
 0002:00002280       ??_C@_0DB@EHGGIPPP@bad?5allocation?5in?5previous?5or?5c@ 0000000180024280     tbb_misc.obj
 0002:000022c0       ??_C@_0EE@GAOIKEOM@attempted?5recursive?5lock?5on?5cri@ 00000001800242c0     tbb_misc.obj
 0002:00002308       ??_C@_0DD@PCCDFJFN@User?9initiated?5abort?5has?5termin@ 0000000180024308     tbb_misc.obj
 0002:00002340       ??_C@_0DO@ODMIBMOL@The?5same?5task_handle?5object?5can@ 0000000180024340     tbb_misc.obj
 0002:00002380       ??_C@_0DD@BLHHBEJJ@wait?$CI?$CJ?5was?5not?5called?5on?5the?5st@ 0000000180024380     tbb_misc.obj
 0002:000023b4       ??_C@_06DJHOIPC@?$CFs?3?5?$CFs@ 00000001800243b4     tbb_misc.obj
 0002:000023c0       ??_C@_0BG@CGPDMLJD@Step?5must?5be?5positive@ 00000001800243c0     tbb_misc.obj
 0002:000023d8       ??_C@_0CC@LGDCOMIO@Index?5out?5of?5requested?5size?5ran@ 00000001800243d8     tbb_misc.obj
 0002:00002400       ??_C@_0CF@FOAMFCKF@Index?5out?5of?5allocated?5segment?5@ 0000000180024400     tbb_misc.obj
 0002:00002428       ??_C@_0BH@JPEMMDHK@Index?5is?5not?5allocated@ 0000000180024428     tbb_misc.obj
 0002:00002440       ??_C@_0BO@PIMGLGEN@Resource?5deadlock?5would?5occur@ 0000000180024440     tbb_misc.obj
 0002:00002460       ??_C@_0BI@BJFCGOHL@Operation?5not?5permitted@ 0000000180024460     tbb_misc.obj
 0002:00002478       ??_C@_0CC@PACKIMIC@Wait?5on?5condition?5variable?5fail@ 0000000180024478     tbb_misc.obj
 0002:000024a0       ??_C@_0BJ@CNNJIMJ@Invalid?5hash?5load?5factor@ 00000001800244a0     tbb_misc.obj
 0002:000024c0       ??_C@_0DD@JIFGIFI@?$FLbackward?5compatibility?$FN?5Invali@ 00000001800244c0     tbb_misc.obj
 0002:000024f8       ??_C@_0CK@HKNLFKFK@swap?$CI?$CJ?5is?5invalid?5on?5non?9equal?5@ 00000001800244f8     tbb_misc.obj
 0002:00002528       ??_C@_0CM@BHPAMPN@reservation?5size?5exceeds?5permit@ 0000000180024528     tbb_misc.obj
 0002:00002558       ??_C@_0M@BEDENHPD@invalid?5key@ 0000000180024558     tbb_misc.obj
 0002:00002568       ??_C@_0BI@DEMFIOGM@Illegal?5tagged_msg?5cast@ 0000000180024568     tbb_misc.obj
 0002:00002580       ??_C@_0BK@MPLHFPGJ@Blocking?5terminate?5failed@ 0000000180024580     tbb_misc.obj
 0002:000025a0       ??_C@_0M@MLMCGNOA@TBB?3?5?$CFs?7?$CFs?6@ 00000001800245a0     tbb_misc.obj
 0002:000025b8       ??_7user_abort@tbb@@6B@    00000001800245b8     tbb_misc.obj
 0002:000025d0       ??_7invalid_multiple_scheduling@tbb@@6B@ 00000001800245d0     tbb_misc.obj
 0002:000025e8       ??_7range_error@std@@6B@   00000001800245e8     tbb_misc.obj
 0002:00002600       ??_7missing_wait@tbb@@6B@  0000000180024600     tbb_misc.obj
 0002:00002618       ??_7length_error@std@@6B@  0000000180024618     tbb_misc.obj
 0002:00002630       ??_7out_of_range@std@@6B@  0000000180024630     tbb_misc.obj
 0002:00002648       ??_7logic_error@std@@6B@   0000000180024648     tbb_misc.obj
 0002:00002660       ??_7invalid_argument@std@@6B@ 0000000180024660     tbb_misc.obj
 0002:00002678       ??_7runtime_error@std@@6B@ 0000000180024678     tbb_misc.obj
 0002:00002688       ??_C@_0BI@DGHANAAJ@GetActiveProcessorCount@ 0000000180024688     tbb_misc_ex.obj
 0002:000026a0       ??_C@_0BN@LPAFAILO@GetActiveProcessorGroupCount@ 00000001800246a0     tbb_misc_ex.obj
 0002:000026c0       ??_C@_0BH@CJPDKMEB@SetThreadGroupAffinity@ 00000001800246c0     tbb_misc_ex.obj
 0002:000026d8       ??_C@_0BH@CINNILJO@GetThreadGroupAffinity@ 00000001800246d8     tbb_misc_ex.obj
 0002:000026f0       ??_C@_02DPKJAMEF@?$CFd@    00000001800246f0     tbb_misc_ex.obj
 0002:000026f8       ??_C@_0BB@PNFHLMII@Processor?5groups@ 00000001800246f8     tbb_misc_ex.obj
 0002:00002710       ??_C@_0M@EBCKCMNJ@?$CFd?3?5size?5?$CFd@ 0000000180024710     tbb_misc_ex.obj
 0002:00002720       ??_C@_0M@KEGADPLK@?9?9?9?9?9?5Group@ 0000000180024720     tbb_misc_ex.obj
 0002:00002730       ??_C@_0BH@IFIKJPDO@Unidentified?5exception@ 0000000180024730     task_group_context.obj
 0002:00002748       ??_C@_03KHICJKCI@?4?4?4@   0000000180024748     task_group_context.obj
 0002:00002758       ??_7tbb_exception@tbb@@6B@ 0000000180024758     task_group_context.obj
 0002:00002790       ??_7captured_exception@tbb@@6B@ 0000000180024790     task_group_context.obj
 0002:000027c0       ??_C@_0BG@DMHJAPLO@__cilkrts_watch_stack@ 00000001800247c0     governor.obj
 0002:000027d8       ??_C@_0O@NKJMJIO@cilkrts20?4dll@ 00000001800247d8     governor.obj
 0002:000027e8       ??_C@_0CN@HLMBHJIE@TBB?5failed?5to?5initialize?5task?5s@ 00000001800247e8     governor.obj
 0002:00002820       ??_C@_0FB@GCHNHICK@rml?3?3tbb_factory?3?3make_server?5f@ 0000000180024820     governor.obj
 0002:00002878       ??_C@_07NMPLPEPB@private@  0000000180024878     governor.obj
 0002:00002880       ??_C@_03JLDBPJFA@RML@      0000000180024880     governor.obj
 0002:00002884       ??_C@_06HBFNPGIC@shared@   0000000180024884     governor.obj
 0002:0000288b       ??_C@_00CNPNBAHC@@         000000018002488b     governor.obj
 0002:0000288c       ??_C@_04KKJPNPKG@CILK@     000000018002488c     governor.obj
 0002:00002898       ??_C@_0BJ@HPBMEPDG@initialize_numa_topology@ 0000000180024898     governor.obj
 0002:000028b8       ??_C@_0BJ@HGCAFEHO@allocate_binding_handler@ 00000001800248b8     governor.obj
 0002:000028d8       ??_C@_0BL@HMBIHJGD@deallocate_binding_handler@ 00000001800248d8     governor.obj
 0002:000028f8       ??_C@_0N@OGLFNMEB@bind_to_node@ 00000001800248f8     governor.obj
 0002:00002908       ??_C@_0BB@POCEBDFD@restore_affinity@ 0000000180024908     governor.obj
 0002:00002920       ??_C@_0M@MJCBPHDH@tbbbind?4dll@ 0000000180024920     governor.obj
 0002:00002930       ??_C@_0CI@FEEFPDEA@task_scheduler_init?5already?5ini@ 0000000180024930     governor.obj
 0002:00002958       ??_C@_0O@EHPHBEHA@?$CBmy_scheduler@ 0000000180024958     governor.obj
 0002:00002970       ??_C@_0FC@FHOPHDBE@F?3?2Project?2Main?2homework?2xiaope@ 0000000180024970     governor.obj
 0002:000029d0       ??_C@_0EI@FPEPDFNA@number_of_threads?5for?5task_sche@ 00000001800249d0     governor.obj
 0002:00002a18       ??_C@_0DG@OFDAIHDJ@number_of_threads?$DN?$DNautomatic?5?$HM?$HM@ 0000000180024a18     governor.obj
 0002:00002a50       ??_C@_0DD@OLKEFAFM@deferred?5initialization?5ignores@ 0000000180024a50     governor.obj
 0002:00002a88       ??_C@_0BD@HLGLDMJK@?$CBthread_stack_size@ 0000000180024a88     governor.obj
 0002:00002aa0       ??_C@_0FH@JCMDLEKA@task_scheduler_init?3?3terminate?5@ 0000000180024aa0     governor.obj
 0002:00002af8       ??_C@_01LKDEMHDF@s@        0000000180024af8     governor.obj
 0002:00002b08       ??_7market@internal@tbb@@6B@ 0000000180024b08     market.obj
 0002:00002b50       ??_C@_0KO@MFJKMICN@The?5number?5of?5workers?5is?5curren@ 0000000180024b50     market.obj
 0002:00002c00       ??_C@_0GG@IIAMABLO@Thread?5stack?5size?5has?5been?5alre@ 0000000180024c00     market.obj
 0002:00002c70       ??_C@_0EE@LMBAAMHN@RML?5might?5limit?5the?5number?5of?5w@ 0000000180024c70     market.obj
 0002:00002cb8       ??_C@_1CE@NGMICMCB@?$AAT?$AAB?$AAB?$AA?5?$AAW?$AAo?$AAr?$AAk?$AAe?$AAr?$AA?5?$AAT?$AAh?$AAr?$AAe@ 0000000180024cb8     market.obj
 0002:00002ce0       ??_C@_0BC@KBDMBKEH@deque?$DMT?$DO?5too?5long@ 0000000180024ce0     arena.obj
 0002:00002d00       ??_7empty_task@tbb@@6B@    0000000180024d00     arena.obj
 0002:00002d20       ??_7task_scheduler_observer@interface6@tbb@@6B@ 0000000180024d20     arena.obj
 0002:00002d40       ??_7wait_task@internal@interface7@tbb@@6B@ 0000000180024d40     arena.obj
 0002:00002d60       ??_7delegated_task@internal@interface7@tbb@@6B@ 0000000180024d60     arena.obj
 0002:00002d80       ??_7numa_binding_observer@internal@tbb@@6B@ 0000000180024d80     arena.obj
 0002:00002da0       ??_7?$function_task@Vspawn_functor@graph@interface10@flow@tbb@@@internal@tbb@@6B@ 0000000180024da0     arena.obj
 0002:00002dc0       ??_7task_scheduler_observer_v3@internal@tbb@@6B@ 0000000180024dc0     arena.obj
 0002:00002de0       ??_7scheduler@internal@tbb@@6B@ 0000000180024de0     scheduler.obj
 0002:00002e10       ??_7generic_scheduler@internal@tbb@@6B@ 0000000180024e10     scheduler.obj
 0002:00002e50       ??_7?$custom_scheduler@UIntelSchedulerTraits@internal@tbb@@@internal@tbb@@6B@ 0000000180024e50     scheduler.obj
 0002:00002e90       ??_7?$custom_scheduler@UDefaultSchedulerTraits@internal@tbb@@@internal@tbb@@6B@ 0000000180024e90     scheduler.obj
 0002:00002ed0       ??_7stack_size_control@internal@tbb@@6B@ 0000000180024ed0     tbb_main.obj
 0002:00002ef8       ??_7allowed_parallelism_control@internal@tbb@@6B@ 0000000180024ef8     tbb_main.obj
 0002:00002f18       ??_C@_01CLKCMJKC@?5@       0000000180024f18     tbb_main.obj
 0002:00002f20       ??_C@_0P@BHBHJFKO@broadcast_node@ 0000000180024f20     tbb_main.obj
 0002:00002f30       ??_C@_0M@DAIBLODH@buffer_node@ 0000000180024f30     tbb_main.obj
 0002:00002f40       ??_C@_0O@BDEFFMLJ@continue_node@ 0000000180024f40     tbb_main.obj
 0002:00002f50       ??_C@_0O@MHDODNOI@function_node@ 0000000180024f50     tbb_main.obj
 0002:00002f60       ??_C@_0BF@LOKNJJIN@join_node?5?$CIqueueing?$CJ@ 0000000180024f60     tbb_main.obj
 0002:00002f78       ??_C@_0BG@CPAJABII@join_node?5?$CIreserving?$CJ@ 0000000180024f78     tbb_main.obj
 0002:00002f90       ??_C@_0BJ@JBKOLPMM@join_node?5?$CItag_matching?$CJ@ 0000000180024f90     tbb_main.obj
 0002:00002fb0       ??_C@_0N@MGPDONIF@limiter_node@ 0000000180024fb0     tbb_main.obj
 0002:00002fc0       ??_C@_0BD@GEFOOAKB@multifunction_node@ 0000000180024fc0     tbb_main.obj
 0002:00002fd8       ??_C@_07HCKDLMG@or_node@   0000000180024fd8     tbb_main.obj
 0002:00002fe0       ??_C@_0P@DMKAEFPE@overwrite_node@ 0000000180024fe0     tbb_main.obj
 0002:00002ff0       ??_C@_0BE@JODHPEKF@priority_queue_node@ 0000000180024ff0     tbb_main.obj
 0002:00003008       ??_C@_0L@HPLFNNOE@queue_node@ 0000000180025008     tbb_main.obj
 0002:00003018       ??_C@_0P@GLIMEKCM@sequencer_node@ 0000000180025018     tbb_main.obj
 0002:00003028       ??_C@_0M@LCMGABLK@source_node@ 0000000180025028     tbb_main.obj
 0002:00003038       ??_C@_0L@IHOOKKCE@split_node@ 0000000180025038     tbb_main.obj
 0002:00003048       ??_C@_0BA@EABMGJOO@write_once_node@ 0000000180025048     tbb_main.obj
 0002:00003058       ??_C@_04IEJGKNJ@body@      0000000180025058     tbb_main.obj
 0002:00003060       ??_C@_05KCJBMLII@graph@    0000000180025060     tbb_main.obj
 0002:00003068       ??_C@_04CLMONKIF@node@     0000000180025068     tbb_main.obj
 0002:00003070       ??_C@_0L@HJCMHAA@input_port@ 0000000180025070     tbb_main.obj
 0002:00003080       ??_C@_0N@LNKGAPPP@input_port_0@ 0000000180025080     tbb_main.obj
 0002:00003090       ??_C@_0N@KELNDOLO@input_port_1@ 0000000180025090     tbb_main.obj
 0002:000030a0       ??_C@_0N@IPJAGNHN@input_port_2@ 00000001800250a0     tbb_main.obj
 0002:000030b0       ??_C@_0N@JGILFMDM@input_port_3@ 00000001800250b0     tbb_main.obj
 0002:000030c0       ??_C@_0N@NJMKMKPL@input_port_4@ 00000001800250c0     tbb_main.obj
 0002:000030d0       ??_C@_0N@MANBPLLK@input_port_5@ 00000001800250d0     tbb_main.obj
 0002:000030e0       ??_C@_0N@OLPMKIHJ@input_port_6@ 00000001800250e0     tbb_main.obj
 0002:000030f0       ??_C@_0N@PCOHJJDI@input_port_7@ 00000001800250f0     tbb_main.obj
 0002:00003100       ??_C@_0N@HFHPIFPH@input_port_8@ 0000000180025100     tbb_main.obj
 0002:00003110       ??_C@_0N@GMGELELG@input_port_9@ 0000000180025110     tbb_main.obj
 0002:00003120       ??_C@_0M@NJGGAENH@output_port@ 0000000180025120     tbb_main.obj
 0002:00003130       ??_C@_0O@HBLCBBNJ@output_port_0@ 0000000180025130     tbb_main.obj
 0002:00003140       ??_C@_0O@GIKJCAJI@output_port_1@ 0000000180025140     tbb_main.obj
 0002:00003150       ??_C@_0O@EDIEHDFL@output_port_2@ 0000000180025150     tbb_main.obj
 0002:00003160       ??_C@_0O@FKJPECBK@output_port_3@ 0000000180025160     tbb_main.obj
 0002:00003170       ??_C@_0O@BFNONENN@output_port_4@ 0000000180025170     tbb_main.obj
 0002:00003180       ??_C@_0O@MMFOFJM@output_port_5@ 0000000180025180     tbb_main.obj
 0002:00003190       ??_C@_0O@CHOILGFP@output_port_6@ 0000000180025190     tbb_main.obj
 0002:000031a0       ??_C@_0O@DOPDIHBO@output_port_7@ 00000001800251a0     tbb_main.obj
 0002:000031b0       ??_C@_0O@LJGLJLNB@output_port_8@ 00000001800251b0     tbb_main.obj
 0002:000031c0       ??_C@_0O@KAHAKKJA@output_port_9@ 00000001800251c0     tbb_main.obj
 0002:000031d0       ??_C@_0M@EAODMCNL@object_name@ 00000001800251d0     tbb_main.obj
 0002:000031dc       ??_C@_04MLLLIHIP@null@     00000001800251dc     tbb_main.obj
 0002:000031e8       ??_C@_0N@CIABJKAG@indexer_node@ 00000001800251e8     tbb_main.obj
 0002:000031f8       ??_C@_0P@PMHOCMHO@composite_node@ 00000001800251f8     tbb_main.obj
 0002:00003208       ??_C@_0L@NEKIMAEK@async_node@ 0000000180025208     tbb_main.obj
 0002:00003218       ??_C@_0M@HOBIOEJE@opencl_node@ 0000000180025218     tbb_main.obj
 0002:00003228       ??_C@_0O@BPKHIHBJ@tbb_algorithm@ 0000000180025228     tbb_main.obj
 0002:00003238       ??_C@_0BB@PECFBABH@tbb_parallel_for@ 0000000180025238     tbb_main.obj
 0002:00003250       ??_C@_0BA@EMCKICGI@tbb_parallel_do@ 0000000180025250     tbb_main.obj
 0002:00003260       ??_C@_0BE@OPHGCKON@tbb_parallel_invoke@ 0000000180025260     tbb_main.obj
 0002:00003278       ??_C@_0BE@MLPPDALL@tbb_parallel_reduce@ 0000000180025278     tbb_main.obj
 0002:00003290       ??_C@_0BC@IEOPFMJN@tbb_parallel_scan@ 0000000180025290     tbb_main.obj
 0002:000032a8       ??_C@_0BC@GAHEAENH@tbb_parallel_sort@ 00000001800252a8     tbb_main.obj
 0002:000032c0       ??_C@_0L@NJEEANEO@tbb_custom@ 00000001800252c0     tbb_main.obj
 0002:000032d0       ??_C@_0P@IGDLMAMI@tbb_flow_graph@ 00000001800252d0     tbb_main.obj
 0002:000032e0       ??_C@_0BG@GOCBLEJB@tbb_parallel_for_task@ 00000001800252e0     tbb_main.obj
 0002:000032f8       ??_C@_0P@BAEEGJC@fgt_user_event@ 00000001800252f8     tbb_main.obj
 0002:00003308       ??_C@_0BF@KMKBBPLN@num_resource_strings@ 0000000180025308     tbb_main.obj
 0002:00003320       ??_C@_17GGNECOCF@?$AAt?$AAb?$AAb@ 0000000180025320     tbb_main.obj
 0002:00003328       ??_C@_1BC@CMIBHMBD@?$AAt?$AAb?$AAb?$AA?4?$AAf?$AAl?$AAo?$AAw@ 0000000180025328     tbb_main.obj
 0002:00003340       ??_C@_1BM@GKEMMKFC@?$AAt?$AAb?$AAb?$AA?4?$AAa?$AAl?$AAg?$AAo?$AAr?$AAi?$AAt?$AAh?$AAm@ 0000000180025340     tbb_main.obj
 0002:00003360       ??_C@_0M@EKHIKCEO@TBB_VERSION@ 0000000180025360     tbb_main.obj
 0002:00003370       ??_C@_07MHHIKOPA@enabled@  0000000180025370     tbb_main.obj
 0002:00003378       ??_C@_08BEHKFNNO@disabled@ 0000000180025378     tbb_main.obj
 0002:00003388       ??_C@_0O@LHPLOFAD@Tools?5support@ 0000000180025388     tbb_main.obj
 0002:00003398       ??_C@_0CJ@HDMCLBIG@my_param?5?$DM?5global_control?3?3para@ 0000000180025398     tbb_main.obj
 0002:000033d0       ??_C@_0FC@BMOOHFIA@F?3?2Project?2Main?2homework?2xiaope@ 00000001800253d0     tbb_main.obj
 0002:00003428       ??_C@_0CG@PDFKBMHP@param?5?$DM?5global_control?3?3paramet@ 0000000180025428     tbb_main.obj
 0002:00003450       ??_C@_0EN@BNMJDMF@argument?5to?5concurrent_vector?3?3@ 0000000180025450     concurrent_vector_v2.obj
 0002:000034a8       ??_7concurrent_queue_base@internal@tbb@@6B@ 00000001800254a8     concurrent_queue_v2.obj
 0002:000034c0       __real@3ff0000000000000    00000001800254c0     condition_variable.obj
 0002:000034c8       __real@408f400000000000    00000001800254c8     condition_variable.obj
 0002:000034d0       __real@41efffffffe00000    00000001800254d0     tbb_thread.obj
 0002:000034e0       __xmm@00000000000000010000000000000001 00000001800254e0     scheduler.obj
 0002:000034f0       __xmm@00000000cdcdcdcd00000000cdcdcdcd 00000001800254f0     concurrent_queue.obj
 0002:00003500       __xmm@ffffffffffffffffffffffffffffffff 0000000180025500     scheduler.obj
 0002:00003580       _load_config_used          0000000180025580     MSVCRT:loadcfg.obj
 0002:00003700       _tls_used                  0000000180025700     MSVCRT:tlssup.obj
 0002:00003730       ??_R4type_info@@6B@        0000000180025730     MSVCRT:std_type_info_static.obj
 0002:00003758       ??_R3type_info@@8          0000000180025758     MSVCRT:std_type_info_static.obj
 0002:00003770       ??_R2type_info@@8          0000000180025770     MSVCRT:std_type_info_static.obj
 0002:00003780       ??_R1A@?0A@EA@type_info@@8 0000000180025780     MSVCRT:std_type_info_static.obj
 0002:000037a8       ??_R4bad_array_new_length@std@@6B@ 00000001800257a8     MSVCRT:throw_bad_alloc.obj
 0002:000037d0       ??_R3bad_array_new_length@std@@8 00000001800257d0     MSVCRT:throw_bad_alloc.obj
 0002:000037e8       ??_R2bad_array_new_length@std@@8 00000001800257e8     MSVCRT:throw_bad_alloc.obj
 0002:00003808       ??_R1A@?0A@EA@bad_array_new_length@std@@8 0000000180025808     MSVCRT:throw_bad_alloc.obj
 0002:00003830       ??_R17?0A@EN@no_copy@internal@tbb@@8 0000000180025830     concurrent_queue.obj
 0002:00003858       ??_R2no_copy@internal@tbb@@8 0000000180025858     concurrent_queue.obj
 0002:00003870       ??_R1A@?0A@EA@no_copy@internal@tbb@@8 0000000180025870     concurrent_queue.obj
 0002:00003898       ??_R1A@?0A@EN@no_assign@internal@tbb@@8 0000000180025898     concurrent_queue.obj
 0002:000038c0       ??_R1A@?0A@EA@no_assign@internal@tbb@@8 00000001800258c0     concurrent_queue.obj
 0002:000038e8       ??_R17?0A@EN@no_assign@internal@tbb@@8 00000001800258e8     concurrent_queue.obj
 0002:00003910       ??_R2concurrent_queue_base_v3@internal@tbb@@8 0000000180025910     concurrent_queue.obj
 0002:00003930       ??_R3concurrent_queue_base_v3@internal@tbb@@8 0000000180025930     concurrent_queue.obj
 0002:00003948       ??_R3no_copy@internal@tbb@@8 0000000180025948     concurrent_queue.obj
 0002:00003960       ??_R1A@?0A@EA@concurrent_queue_base_v3@internal@tbb@@8 0000000180025960     concurrent_queue.obj
 0002:00003988       ??_R2no_assign@internal@tbb@@8 0000000180025988     concurrent_queue.obj
 0002:00003998       ??_R3no_assign@internal@tbb@@8 0000000180025998     concurrent_queue.obj
 0002:000039b0       ??_R4concurrent_queue_base_v3@internal@tbb@@6B@ 00000001800259b0     concurrent_queue.obj
 0002:000039d8       ??_R1A@?0A@EN@no_copy@internal@tbb@@8 00000001800259d8     pipeline.obj
 0002:00003a00       ??_R4pipeline@tbb@@6B@     0000000180025a00     pipeline.obj
 0002:00003a28       ??_R4stage_task@internal@tbb@@6B@ 0000000180025a28     pipeline.obj
 0002:00003a50       ??_R1A@?0A@EA@stage_task@internal@tbb@@8 0000000180025a50     pipeline.obj
 0002:00003a78       ??_R2task_info@internal@tbb@@8 0000000180025a78     pipeline.obj
 0002:00003a88       ??_R4pipeline_root_task@internal@tbb@@6B@ 0000000180025a88     pipeline.obj
 0002:00003ab0       ??_R2filter@tbb@@8         0000000180025ab0     pipeline.obj
 0002:00003ad0       ??_R2task_base@internal@interface5@tbb@@8 0000000180025ad0     pipeline.obj
 0002:00003af0       ??_R3stage_task@internal@tbb@@8 0000000180025af0     pipeline.obj
 0002:00003b08       ??_R2pipeline@tbb@@8       0000000180025b08     pipeline.obj
 0002:00003b18       ??_R17?0A@EA@task_info@internal@tbb@@8 0000000180025b18     pipeline.obj
 0002:00003b40       ??_R1A@?0A@EA@filter@tbb@@8 0000000180025b40     pipeline.obj
 0002:00003b68       ??_R2pipeline_root_task@internal@tbb@@8 0000000180025b68     pipeline.obj
 0002:00003b98       ??_R3filter@tbb@@8         0000000180025b98     pipeline.obj
 0002:00003bb0       ??_R1A@?0A@EA@task_base@internal@interface5@tbb@@8 0000000180025bb0     pipeline.obj
 0002:00003bd8       ??_R3task_info@internal@tbb@@8 0000000180025bd8     pipeline.obj
 0002:00003bf0       ??_R3pipeline@tbb@@8       0000000180025bf0     pipeline.obj
 0002:00003c08       ??_R17?0A@EA@task_base@internal@interface5@tbb@@8 0000000180025c08     pipeline.obj
 0002:00003c30       ??_R2task@tbb@@8           0000000180025c30     pipeline.obj
 0002:00003c58       ??_R3pipeline_root_task@internal@tbb@@8 0000000180025c58     pipeline.obj
 0002:00003c70       ??_R1A@?0A@EA@pipeline_root_task@internal@tbb@@8 0000000180025c70     pipeline.obj
 0002:00003c98       ??_R1A@?0A@EA@pipeline@tbb@@8 0000000180025c98     pipeline.obj
 0002:00003cc0       ??_R1A@?0A@EA@task@tbb@@8  0000000180025cc0     pipeline.obj
 0002:00003ce8       ??_R4filter@tbb@@6B@       0000000180025ce8     pipeline.obj
 0002:00003d10       ??_R4task@tbb@@6B@         0000000180025d10     pipeline.obj
 0002:00003d38       ??_R3task@tbb@@8           0000000180025d38     pipeline.obj
 0002:00003d50       ??_R1A@?0A@EA@task_info@internal@tbb@@8 0000000180025d50     pipeline.obj
 0002:00003d78       ??_R2stage_task@internal@tbb@@8 0000000180025d78     pipeline.obj
 0002:00003db0       ??_R3task_base@internal@interface5@tbb@@8 0000000180025db0     pipeline.obj
 0002:00003dc8       ??_R3tbb_server@rml@internal@tbb@@8 0000000180025dc8     private_server.obj
 0002:00003de0       ??_R3private_server@rml@internal@tbb@@8 0000000180025de0     private_server.obj
 0002:00003df8       ??_R2private_server@rml@internal@tbb@@8 0000000180025df8     private_server.obj
 0002:00003e30       ??_R2tbb_server@rml@internal@tbb@@8 0000000180025e30     private_server.obj
 0002:00003e50       ??_R1A@?0A@EA@versioned_object@rml@@8 0000000180025e50     private_server.obj
 0002:00003e78       ??_R3versioned_object@rml@@8 0000000180025e78     private_server.obj
 0002:00003e90       ??_R2versioned_object@rml@@8 0000000180025e90     private_server.obj
 0002:00003ea0       ??_R1A@?0A@EA@tbb_server@rml@internal@tbb@@8 0000000180025ea0     private_server.obj
 0002:00003ec8       ??_R1A@?0A@EA@server@rml@@8 0000000180025ec8     private_server.obj
 0002:00003ef0       ??_R2server@rml@@8         0000000180025ef0     private_server.obj
 0002:00003f08       ??_R3server@rml@@8         0000000180025f08     private_server.obj
 0002:00003f20       ??_R1A@?0A@EA@private_server@rml@internal@tbb@@8 0000000180025f20     private_server.obj
 0002:00003f48       ??_R4private_server@rml@internal@tbb@@6B@ 0000000180025f48     private_server.obj
 0002:00003f70       ??_R4bad_alloc@std@@6B@    0000000180025f70     tbb_misc.obj
 0002:00003f98       ??_R3out_of_range@std@@8   0000000180025f98     tbb_misc.obj
 0002:00003fb0       ??_R4invalid_multiple_scheduling@tbb@@6B@ 0000000180025fb0     tbb_misc.obj
 0002:00003fd8       ??_R4user_abort@tbb@@6B@   0000000180025fd8     tbb_misc.obj
 0002:00004000       ??_R1A@?0A@EA@user_abort@tbb@@8 0000000180026000     tbb_misc.obj
 0002:00004028       ??_R3bad_alloc@std@@8      0000000180026028     tbb_misc.obj
 0002:00004040       ??_R4missing_wait@tbb@@6B@ 0000000180026040     tbb_misc.obj
 0002:00004068       ??_R2runtime_error@std@@8  0000000180026068     tbb_misc.obj
 0002:00004080       ??_R2missing_wait@tbb@@8   0000000180026080     tbb_misc.obj
 0002:00004098       ??_R3range_error@std@@8    0000000180026098     tbb_misc.obj
 0002:000040b0       ??_R1A@?0A@EA@length_error@std@@8 00000001800260b0     tbb_misc.obj
 0002:000040d8       ??_R4range_error@std@@6B@  00000001800260d8     tbb_misc.obj
 0002:00004100       ??_R3runtime_error@std@@8  0000000180026100     tbb_misc.obj
 0002:00004118       ??_R3improper_lock@tbb@@8  0000000180026118     tbb_misc.obj
 0002:00004130       ??_R1A@?0A@EA@logic_error@std@@8 0000000180026130     tbb_misc.obj
 0002:00004158       ??_R4exception@std@@6B@    0000000180026158     tbb_misc.obj
 0002:00004180       ??_R2length_error@std@@8   0000000180026180     tbb_misc.obj
 0002:000041a0       ??_R4runtime_error@std@@6B@ 00000001800261a0     tbb_misc.obj
 0002:000041c8       ??_R1A@?0A@EA@invalid_multiple_scheduling@tbb@@8 00000001800261c8     tbb_misc.obj
 0002:000041f0       ??_R4improper_lock@tbb@@6B@ 00000001800261f0     tbb_misc.obj
 0002:00004218       ??_R2invalid_multiple_scheduling@tbb@@8 0000000180026218     tbb_misc.obj
 0002:00004230       ??_R2bad_alloc@std@@8      0000000180026230     tbb_misc.obj
 0002:00004248       ??_R2improper_lock@tbb@@8  0000000180026248     tbb_misc.obj
 0002:00004260       ??_R1A@?0A@EA@bad_last_alloc@tbb@@8 0000000180026260     tbb_misc.obj
 0002:00004288       ??_R3invalid_argument@std@@8 0000000180026288     tbb_misc.obj
 0002:000042a0       ??_R1A@?0A@EA@runtime_error@std@@8 00000001800262a0     tbb_misc.obj
 0002:000042c8       ??_R1A@?0A@EA@missing_wait@tbb@@8 00000001800262c8     tbb_misc.obj
 0002:000042f0       ??_R2invalid_argument@std@@8 00000001800262f0     tbb_misc.obj
 0002:00004310       ??_R1A@?0A@EA@exception@std@@8 0000000180026310     tbb_misc.obj
 0002:00004338       ??_R1A@?0A@EA@bad_alloc@std@@8 0000000180026338     tbb_misc.obj
 0002:00004360       ??_R2bad_last_alloc@tbb@@8 0000000180026360     tbb_misc.obj
 0002:00004380       ??_R2logic_error@std@@8    0000000180026380     tbb_misc.obj
 0002:00004398       ??_R4length_error@std@@6B@ 0000000180026398     tbb_misc.obj
 0002:000043c0       ??_R2range_error@std@@8    00000001800263c0     tbb_misc.obj
 0002:000043e0       ??_R2exception@std@@8      00000001800263e0     tbb_misc.obj
 0002:000043f0       ??_R4invalid_argument@std@@6B@ 00000001800263f0     tbb_misc.obj
 0002:00004418       ??_R3invalid_multiple_scheduling@tbb@@8 0000000180026418     tbb_misc.obj
 0002:00004430       ??_R1A@?0A@EA@invalid_argument@std@@8 0000000180026430     tbb_misc.obj
 0002:00004458       ??_R4bad_last_alloc@tbb@@6B@ 0000000180026458     tbb_misc.obj
 0002:00004480       ??_R1A@?0A@EA@out_of_range@std@@8 0000000180026480     tbb_misc.obj
 0002:000044a8       ??_R3length_error@std@@8   00000001800264a8     tbb_misc.obj
 0002:000044c0       ??_R4out_of_range@std@@6B@ 00000001800264c0     tbb_misc.obj
 0002:000044e8       ??_R3bad_last_alloc@tbb@@8 00000001800264e8     tbb_misc.obj
 0002:00004500       ??_R3logic_error@std@@8    0000000180026500     tbb_misc.obj
 0002:00004518       ??_R1A@?0A@EA@range_error@std@@8 0000000180026518     tbb_misc.obj
 0002:00004540       ??_R3exception@std@@8      0000000180026540     tbb_misc.obj
 0002:00004558       ??_R3user_abort@tbb@@8     0000000180026558     tbb_misc.obj
 0002:00004570       ??_R4logic_error@std@@6B@  0000000180026570     tbb_misc.obj
 0002:00004598       ??_R3missing_wait@tbb@@8   0000000180026598     tbb_misc.obj
 0002:000045b0       ??_R2user_abort@tbb@@8     00000001800265b0     tbb_misc.obj
 0002:000045c8       ??_R2out_of_range@std@@8   00000001800265c8     tbb_misc.obj
 0002:000045e8       ??_R1A@?0A@EA@improper_lock@tbb@@8 00000001800265e8     tbb_misc.obj
 0002:00004610       ??_R1A@?0A@EA@tbb_exception@tbb@@8 0000000180026610     task_group_context.obj
 0002:00004638       ??_R2tbb_exception@tbb@@8  0000000180026638     task_group_context.obj
 0002:00004650       ??_R4tbb_exception@tbb@@6B@ 0000000180026650     task_group_context.obj
 0002:00004678       ??_R2captured_exception@tbb@@8 0000000180026678     task_group_context.obj
 0002:00004698       ??_R4captured_exception@tbb@@6B@ 0000000180026698     task_group_context.obj
 0002:000046c0       ??_R1A@?0A@EA@captured_exception@tbb@@8 00000001800266c0     task_group_context.obj
 0002:000046e8       ??_R3captured_exception@tbb@@8 00000001800266e8     task_group_context.obj
 0002:00004700       ??_R3tbb_exception@tbb@@8  0000000180026700     task_group_context.obj
 0002:00004718       ??_R1A@?0A@EJ@versioned_object@rml@@8 0000000180026718     market.obj
 0002:00004740       ??_R2client@rml@@8         0000000180026740     market.obj
 0002:00004758       ??_R1A@?0A@EJ@client@rml@@8 0000000180026758     market.obj
 0002:00004780       ??_R4market@internal@tbb@@6B@ 0000000180026780     market.obj
 0002:000047a8       ??_R3client@rml@@8         00000001800267a8     market.obj
 0002:000047c0       ??_R1A@?0A@EA@tbb_client@rml@internal@tbb@@8 00000001800267c0     market.obj
 0002:000047e8       ??_R1A@?0A@EA@client@rml@@8 00000001800267e8     market.obj
 0002:00004810       ??_R1A@?0A@EA@market@internal@tbb@@8 0000000180026810     market.obj
 0002:00004838       ??_R3market@internal@tbb@@8 0000000180026838     market.obj
 0002:00004850       ??_R3tbb_client@rml@internal@tbb@@8 0000000180026850     market.obj
 0002:00004868       ??_R2tbb_client@rml@internal@tbb@@8 0000000180026868     market.obj
 0002:00004888       ??_R2market@internal@tbb@@8 0000000180026888     market.obj
 0002:000048c0       ??_R1A@?0A@EN@tbb_client@rml@internal@tbb@@8 00000001800268c0     market.obj
 0002:000048e8       ??_R2delegated_task@internal@interface7@tbb@@8 00000001800268e8     arena.obj
 0002:00004918       ??_R3?$function_task@Vspawn_functor@graph@interface10@flow@tbb@@@internal@tbb@@8 0000000180026918     arena.obj
 0002:00004930       ??_R2empty_task@tbb@@8     0000000180026930     arena.obj
 0002:00004960       ??_R3task_scheduler_observer_v3@internal@tbb@@8 0000000180026960     arena.obj
 0002:00004978       ??_R2wait_task@internal@interface7@tbb@@8 0000000180026978     arena.obj
 0002:000049a8       ??_R4numa_binding_observer@internal@tbb@@6B@ 00000001800269a8     arena.obj
 0002:000049d0       ??_R3delegated_task@internal@interface7@tbb@@8 00000001800269d0     arena.obj
 0002:000049e8       ??_R4empty_task@tbb@@6B@   00000001800269e8     arena.obj
 0002:00004a10       ??_R1A@?0A@EA@?$function_task@Vspawn_functor@graph@interface10@flow@tbb@@@internal@tbb@@8 0000000180026a10     arena.obj
 0002:00004a38       ??_R4task_scheduler_observer_v3@internal@tbb@@6B@ 0000000180026a38     arena.obj
 0002:00004a60       ??_R3task_scheduler_observer@interface6@tbb@@8 0000000180026a60     arena.obj
 0002:00004a78       ??_R4delegated_task@internal@interface7@tbb@@6B@ 0000000180026a78     arena.obj
 0002:00004aa0       ??_R1A@?0A@EA@numa_binding_observer@internal@tbb@@8 0000000180026aa0     arena.obj
 0002:00004ac8       ??_R1A@?0A@EA@task_scheduler_observer@interface6@tbb@@8 0000000180026ac8     arena.obj
 0002:00004af0       ??_R2task_scheduler_observer_v3@internal@tbb@@8 0000000180026af0     arena.obj
 0002:00004b00       ??_R4?$function_task@Vspawn_functor@graph@interface10@flow@tbb@@@internal@tbb@@6B@ 0000000180026b00     arena.obj
 0002:00004b28       ??_R2?$function_task@Vspawn_functor@graph@interface10@flow@tbb@@@internal@tbb@@8 0000000180026b28     arena.obj
 0002:00004b58       ??_R2task_scheduler_observer@interface6@tbb@@8 0000000180026b58     arena.obj
 0002:00004b70       ??_R1A@?0A@EA@empty_task@tbb@@8 0000000180026b70     arena.obj
 0002:00004b98       ??_R3empty_task@tbb@@8     0000000180026b98     arena.obj
 0002:00004bb0       ??_R4wait_task@internal@interface7@tbb@@6B@ 0000000180026bb0     arena.obj
 0002:00004bd8       ??_R1A@?0A@EA@task_scheduler_observer_v3@internal@tbb@@8 0000000180026bd8     arena.obj
 0002:00004c00       ??_R4task_scheduler_observer@interface6@tbb@@6B@ 0000000180026c00     arena.obj
 0002:00004c28       ??_R2numa_binding_observer@internal@tbb@@8 0000000180026c28     arena.obj
 0002:00004c48       ??_R1A@?0A@EA@wait_task@internal@interface7@tbb@@8 0000000180026c48     arena.obj
 0002:00004c70       ??_R3wait_task@internal@interface7@tbb@@8 0000000180026c70     arena.obj
 0002:00004c88       ??_R1A@?0A@EA@delegated_task@internal@interface7@tbb@@8 0000000180026c88     arena.obj
 0002:00004cb0       ??_R3numa_binding_observer@internal@tbb@@8 0000000180026cb0     arena.obj
 0002:00004cc8       ??_R1A@?0A@EA@job@rml@@8   0000000180026cc8     scheduler.obj
 0002:00004cf0       ??_R3scheduler_state@internal@tbb@@8 0000000180026cf0     scheduler.obj
 0002:00004d08       ??_R3intrusive_list_node@internal@tbb@@8 0000000180026d08     scheduler.obj
 0002:00004d20       ??_R4generic_scheduler@internal@tbb@@6B@ 0000000180026d20     scheduler.obj
 0002:00004d50       ??_R2?$custom_scheduler@UDefaultSchedulerTraits@internal@tbb@@@internal@tbb@@8 0000000180026d50     scheduler.obj
 0002:00004d98       ??_R1BA@?0A@EJ@intrusive_list_node@internal@tbb@@8 0000000180026d98     scheduler.obj
 0002:00004dc0       ??_R1CA@?0A@EJ@scheduler_state@internal@tbb@@8 0000000180026dc0     scheduler.obj
 0002:00004de8       ??_R4?$custom_scheduler@UDefaultSchedulerTraits@internal@tbb@@@internal@tbb@@6B@ 0000000180026de8     scheduler.obj
 0002:00004e10       ??_R4scheduler@internal@tbb@@6B@ 0000000180026e10     scheduler.obj
 0002:00004e38       ??_R1A@?0A@EA@?$custom_scheduler@UDefaultSchedulerTraits@internal@tbb@@@internal@tbb@@8 0000000180026e38     scheduler.obj
 0002:00004e60       ??_R2?$custom_scheduler@UIntelSchedulerTraits@internal@tbb@@@internal@tbb@@8 0000000180026e60     scheduler.obj
 0002:00004ea8       ??_R2intrusive_list_node@internal@tbb@@8 0000000180026ea8     scheduler.obj
 0002:00004eb8       ??_R2generic_scheduler@internal@tbb@@8 0000000180026eb8     scheduler.obj
 0002:00004ef8       ??_R3generic_scheduler@internal@tbb@@8 0000000180026ef8     scheduler.obj
 0002:00004f10       ??_R1A@?0A@EN@generic_scheduler@internal@tbb@@8 0000000180026f10     scheduler.obj
 0002:00004f38       ??_R3?$custom_scheduler@UDefaultSchedulerTraits@internal@tbb@@@internal@tbb@@8 0000000180026f38     scheduler.obj
 0002:00004f50       ??_R3scheduler@internal@tbb@@8 0000000180026f50     scheduler.obj
 0002:00004f68       ??_R2scheduler@internal@tbb@@8 0000000180026f68     scheduler.obj
 0002:00004f88       ??_R1BA@?0A@EA@intrusive_list_node@internal@tbb@@8 0000000180026f88     scheduler.obj
 0002:00004fb0       ??_R1A@?0A@EJ@scheduler@internal@tbb@@8 0000000180026fb0     scheduler.obj
 0002:00004fd8       ??_R1A@?0A@EA@generic_scheduler@internal@tbb@@8 0000000180026fd8     scheduler.obj
 0002:00005000       ??_R2scheduler_state@internal@tbb@@8 0000000180027000     scheduler.obj
 0002:00005010       ??_R1A@?0A@EA@?$custom_scheduler@UIntelSchedulerTraits@internal@tbb@@@internal@tbb@@8 0000000180027010     scheduler.obj
 0002:00005038       ??_R2job@rml@@8            0000000180027038     scheduler.obj
 0002:00005048       ??_R17?0A@EA@job@rml@@8    0000000180027048     scheduler.obj
 0002:00005070       ??_R17?0A@EJ@job@rml@@8    0000000180027070     scheduler.obj
 0002:00005098       ??_R1A@?0A@EA@intrusive_list_node@internal@tbb@@8 0000000180027098     scheduler.obj
 0002:000050c0       ??_R3job@rml@@8            00000001800270c0     scheduler.obj
 0002:000050d8       ??_R1A@?0A@EA@scheduler_state@internal@tbb@@8 00000001800270d8     scheduler.obj
 0002:00005100       ??_R1CA@?0A@EA@scheduler_state@internal@tbb@@8 0000000180027100     scheduler.obj
 0002:00005128       ??_R1A@?0A@EA@scheduler@internal@tbb@@8 0000000180027128     scheduler.obj
 0002:00005150       ??_R3?$custom_scheduler@UIntelSchedulerTraits@internal@tbb@@@internal@tbb@@8 0000000180027150     scheduler.obj
 0002:00005168       ??_R4?$custom_scheduler@UIntelSchedulerTraits@internal@tbb@@@internal@tbb@@6B@ 0000000180027168     scheduler.obj
 0002:00005190       ??_R3control_storage@internal@tbb@@8 0000000180027190     tbb_main.obj
 0002:000051a8       ??_R2?$padded_base@Vcontrol_storage@internal@tbb@@$0IA@$0CA@@internal@tbb@@8 00000001800271a8     tbb_main.obj
 0002:000051c0       ??_R3?$padded@Vcontrol_storage@internal@tbb@@$0IA@@internal@tbb@@8 00000001800271c0     tbb_main.obj
 0002:000051d8       ??_R4allowed_parallelism_control@internal@tbb@@6B@ 00000001800271d8     tbb_main.obj
 0002:00005200       ??_R1A@?0A@EA@?$padded@Vcontrol_storage@internal@tbb@@$0IA@@internal@tbb@@8 0000000180027200     tbb_main.obj
 0002:00005228       ??_R1A@?0A@EA@control_storage@internal@tbb@@8 0000000180027228     tbb_main.obj
 0002:00005250       ??_R2control_storage@internal@tbb@@8 0000000180027250     tbb_main.obj
 0002:00005260       ??_R2?$padded@Vcontrol_storage@internal@tbb@@$0IA@@internal@tbb@@8 0000000180027260     tbb_main.obj
 0002:00005280       ??_R3?$padded_base@Vcontrol_storage@internal@tbb@@$0IA@$0CA@@internal@tbb@@8 0000000180027280     tbb_main.obj
 0002:00005298       ??_R3stack_size_control@internal@tbb@@8 0000000180027298     tbb_main.obj
 0002:000052b0       ??_R1A@?0A@EA@stack_size_control@internal@tbb@@8 00000001800272b0     tbb_main.obj
 0002:000052d8       ??_R2stack_size_control@internal@tbb@@8 00000001800272d8     tbb_main.obj
 0002:00005300       ??_R1A@?0A@EA@allowed_parallelism_control@internal@tbb@@8 0000000180027300     tbb_main.obj
 0002:00005328       ??_R1A@?0A@EA@?$padded_base@Vcontrol_storage@internal@tbb@@$0IA@$0CA@@internal@tbb@@8 0000000180027328     tbb_main.obj
 0002:00005350       ??_R3allowed_parallelism_control@internal@tbb@@8 0000000180027350     tbb_main.obj
 0002:00005368       ??_R2allowed_parallelism_control@internal@tbb@@8 0000000180027368     tbb_main.obj
 0002:00005390       ??_R4stack_size_control@internal@tbb@@6B@ 0000000180027390     tbb_main.obj
 0002:000053b8       ??_R2concurrent_queue_base@internal@tbb@@8 00000001800273b8     concurrent_queue_v2.obj
 0002:000053d8       ??_R1A@?0A@EA@concurrent_queue_base@internal@tbb@@8 00000001800273d8     concurrent_queue_v2.obj
 0002:00005400       ??_R3concurrent_queue_base@internal@tbb@@8 0000000180027400     concurrent_queue_v2.obj
 0002:00005418       ??_R4concurrent_queue_base@internal@tbb@@6B@ 0000000180027418     concurrent_queue_v2.obj
 0002:0000543c       __volatile_metadata        000000018002743c     <linker-defined>
 0002:00005848       __rtc_iaa                  0000000180027848     MSVCRT:initsect.obj
 0002:00005850       __rtc_izz                  0000000180027850     MSVCRT:initsect.obj
 0002:00005858       __rtc_taa                  0000000180027858     MSVCRT:initsect.obj
 0002:00005860       __rtc_tzz                  0000000180027860     MSVCRT:initsect.obj
 0002:00005868       _tls_start                 0000000180027868     MSVCRT:tlssup.obj
 0002:0000586c       _Init_thread_epoch         000000018002786c     MSVCRT:thread_safe_statics.obj
 0002:00005870       _tls_end                   0000000180027870     MSVCRT:tlssup.obj
 0002:00008828       _TI3?AVbad_array_new_length@std@@ 000000018002a828     MSVCRT:throw_bad_alloc.obj
 0002:00008848       _CTA3?AVbad_array_new_length@std@@ 000000018002a848     MSVCRT:throw_bad_alloc.obj
 0002:00008868       _CT??_R0?AVbad_array_new_length@std@@@8??0bad_array_new_length@std@@QEAA@AEBV01@@Z24 000000018002a868     MSVCRT:throw_bad_alloc.obj
 0002:00008890       _CT??_R0?AVruntime_error@std@@@8??0runtime_error@std@@QEAA@AEBV01@@Z24 000000018002a890     tbb_misc.obj
 0002:000088b8       _CT??_R0?AVlength_error@std@@@8??0length_error@std@@QEAA@AEBV01@@Z24 000000018002a8b8     tbb_misc.obj
 0002:000088e0       _TI2?AVimproper_lock@tbb@@ 000000018002a8e0     tbb_misc.obj
 0002:00008900       _CTA2?AVinvalid_multiple_scheduling@tbb@@ 000000018002a900     tbb_misc.obj
 0002:00008918       _CT??_R0?AVbad_alloc@std@@@8??0bad_alloc@std@@QEAA@AEBV01@@Z24 000000018002a918     tbb_misc.obj
 0002:00008940       _TI2?AVmissing_wait@tbb@@  000000018002a940     tbb_misc.obj
 0002:00008960       _CTA3?AVout_of_range@std@@ 000000018002a960     tbb_misc.obj
 0002:00008980       _TI2?AVuser_abort@tbb@@    000000018002a980     tbb_misc.obj
 0002:000089a0       _TI3?AVlength_error@std@@  000000018002a9a0     tbb_misc.obj
 0002:000089c0       _CT??_R0?AVexception@std@@@8??0exception@std@@QEAA@AEBV01@@Z24 000000018002a9c0     tbb_misc.obj
 0002:000089e8       _CT??_R0?AVrange_error@std@@@8??0range_error@std@@QEAA@AEBV01@@Z24 000000018002a9e8     tbb_misc.obj
 0002:00008a10       _CTA2?AVimproper_lock@tbb@@ 000000018002aa10     tbb_misc.obj
 0002:00008a28       _TI2?AVbad_alloc@std@@     000000018002aa28     tbb_misc.obj
 0002:00008a48       _CT??_R0?AVmissing_wait@tbb@@@8??0missing_wait@tbb@@QEAA@AEBV01@@Z24 000000018002aa48     tbb_misc.obj
 0002:00008a70       _TI2?AVinvalid_multiple_scheduling@tbb@@ 000000018002aa70     tbb_misc.obj
 0002:00008a90       _CTA3?AVinvalid_argument@std@@ 000000018002aa90     tbb_misc.obj
 0002:00008ab0       _TI2?AVruntime_error@std@@ 000000018002aab0     tbb_misc.obj
 0002:00008ad0       _TI3?AVrange_error@std@@   000000018002aad0     tbb_misc.obj
 0002:00008af0       _CT??_R0?AVlogic_error@std@@@8??0logic_error@std@@QEAA@AEBV01@@Z24 000000018002aaf0     tbb_misc.obj
 0002:00008b18       _CT??_R0?AVinvalid_multiple_scheduling@tbb@@@8??0invalid_multiple_scheduling@tbb@@QEAA@AEBV01@@Z24 000000018002ab18     tbb_misc.obj
 0002:00008b40       _CT??_R0?AVbad_last_alloc@tbb@@@8??0bad_last_alloc@tbb@@QEAA@AEBV01@@Z24 000000018002ab40     tbb_misc.obj
 0002:00008b68       _TI3?AVout_of_range@std@@  000000018002ab68     tbb_misc.obj
 0002:00008b88       _CT??_R0?AVimproper_lock@tbb@@@8??0improper_lock@tbb@@QEAA@AEBV01@@Z24 000000018002ab88     tbb_misc.obj
 0002:00008bb0       _CTA2?AVruntime_error@std@@ 000000018002abb0     tbb_misc.obj
 0002:00008bc8       _CTA3?AVbad_last_alloc@tbb@@ 000000018002abc8     tbb_misc.obj
 0002:00008be8       _CT??_R0?AVout_of_range@std@@@8??0out_of_range@std@@QEAA@AEBV01@@Z24 000000018002abe8     tbb_misc.obj
 0002:00008c10       _CT??_R0?AVinvalid_argument@std@@@8??0invalid_argument@std@@QEAA@AEBV01@@Z24 000000018002ac10     tbb_misc.obj
 0002:00008c38       _TI3?AVinvalid_argument@std@@ 000000018002ac38     tbb_misc.obj
 0002:00008c58       _CTA3?AVrange_error@std@@  000000018002ac58     tbb_misc.obj
 0002:00008c78       _CTA2?AVuser_abort@tbb@@   000000018002ac78     tbb_misc.obj
 0002:00008c90       _CTA2?AVmissing_wait@tbb@@ 000000018002ac90     tbb_misc.obj
 0002:00008ca8       _CTA2?AVbad_alloc@std@@    000000018002aca8     tbb_misc.obj
 0002:00008cc0       _CTA3?AVlength_error@std@@ 000000018002acc0     tbb_misc.obj
 0002:00008ce0       _TI3?AVbad_last_alloc@tbb@@ 000000018002ace0     tbb_misc.obj
 0002:00008d00       _CT??_R0?AVuser_abort@tbb@@@8??0user_abort@tbb@@QEAA@AEBV01@@Z24 000000018002ad00     tbb_misc.obj
 0002:00008d28       _CT??_R0?AVtbb_exception@tbb@@@8??0tbb_exception@tbb@@QEAA@AEBV01@@Z24 000000018002ad28     task_group_context.obj
 0002:00008d50       _TI3?AVcaptured_exception@tbb@@ 000000018002ad50     task_group_context.obj
 0002:00008d70       _CT??_R0?AVcaptured_exception@tbb@@@8??0captured_exception@tbb@@QEAA@AEBV01@@Z48 000000018002ad70     task_group_context.obj
 0002:00008d98       _CTA3?AVcaptured_exception@tbb@@ 000000018002ad98     task_group_context.obj
 0002:0000d024       __IMPORT_DESCRIPTOR_KERNEL32 000000018002f024     kernel32:KERNEL32.dll
 0002:0000d038       __IMPORT_DESCRIPTOR_MSVCP140 000000018002f038     msvcprt:MSVCP140.dll
 0002:0000d04c       __IMPORT_DESCRIPTOR_VCRUNTIME140_1 000000018002f04c     vcruntime:VCRUNTIME140_1.dll
 0002:0000d060       __IMPORT_DESCRIPTOR_VCRUNTIME140 000000018002f060     vcruntime:VCRUNTIME140.dll
 0002:0000d074       __IMPORT_DESCRIPTOR_api-ms-win-crt-string-l1-1-0 000000018002f074     ucrt:api-ms-win-crt-string-l1-1-0.dll
 0002:0000d088       __IMPORT_DESCRIPTOR_api-ms-win-crt-heap-l1-1-0 000000018002f088     ucrt:api-ms-win-crt-heap-l1-1-0.dll
 0002:0000d09c       __IMPORT_DESCRIPTOR_api-ms-win-crt-runtime-l1-1-0 000000018002f09c     ucrt:api-ms-win-crt-runtime-l1-1-0.dll
 0002:0000d0b0       __IMPORT_DESCRIPTOR_api-ms-win-crt-stdio-l1-1-0 000000018002f0b0     ucrt:api-ms-win-crt-stdio-l1-1-0.dll
 0002:0000d0c4       __IMPORT_DESCRIPTOR_api-ms-win-crt-environment-l1-1-0 000000018002f0c4     ucrt:api-ms-win-crt-environment-l1-1-0.dll
 0002:0000d0d8       __NULL_IMPORT_DESCRIPTOR   000000018002f0d8     kernel32:KERNEL32.dll
 0003:00000000       _Init_global_epoch         0000000180030000     MSVCRT:thread_safe_statics.obj
 0003:00000004       __scrt_native_dllmain_reason 0000000180030004     MSVCRT:utility.obj
 0003:00000008       __security_cookie_complement 0000000180030008     MSVCRT:gs_cookie.obj
 0003:00000010       __security_cookie          0000000180030010     MSVCRT:gs_cookie.obj
 0003:00000018       __isa_available            0000000180030018     MSVCRT:cpu_disp.obj
 0003:0000001c       __isa_enabled              000000018003001c     MSVCRT:cpu_disp.obj
 0003:00000020       __memcpy_nt_iters          0000000180030020     MSVCRT:cpu_disp.obj
 0003:00000028       __memset_nt_iters          0000000180030028     MSVCRT:cpu_disp.obj
 0003:00000030       __scrt_ucrt_dll_is_in_use  0000000180030030     MSVCRT:ucrt_stubs.obj
 0003:00000050       __itt_model_disable_pop_ptr__3_0 0000000180030050     itt_notify.obj
 0003:00000058       __itt_model_site_begin_ptr__3_0 0000000180030058     itt_notify.obj
 0003:00000060       __itt_marker_ex_ptr__3_0   0000000180030060     itt_notify.obj
 0003:00000068       __itt_heap_function_createA_ptr__3_0 0000000180030068     itt_notify.obj
 0003:00000070       __itt_markW_ptr__3_0       0000000180030070     itt_notify.obj
 0003:00000078       __itt_track_group_create_ptr__3_0 0000000180030078     itt_notify.obj
 0003:00000080       __itt_thr_name_setA_ptr__3_0 0000000180030080     itt_notify.obj
 0003:00000088       __itt_model_task_beginAL_ptr__3_0 0000000180030088     itt_notify.obj
 0003:00000090       __itt_frame_end_ptr__3_0   0000000180030090     itt_notify.obj
 0003:00000098       __itt_heap_internal_access_end_ptr__3_0 0000000180030098     itt_notify.obj
 0003:000000a0       __itt_region_end_ptr__3_0  00000001800300a0     itt_notify.obj
 0003:000000a8       __itt_notify_sync_releasing_ptr__3_0 00000001800300a8     itt_notify.obj
 0003:000000b0       __itt_frame_begin_v3_ptr__3_0 00000001800300b0     itt_notify.obj
 0003:000000b8       __itt_metadata_add_ptr__3_0 00000001800300b8     itt_notify.obj
 0003:000000c0       __itt_thread_ignore_ptr__3_0 00000001800300c0     itt_notify.obj
 0003:000000c8       __itt_counter_dec_ptr__3_0 00000001800300c8     itt_notify.obj
 0003:000000d0       __itt_heap_allocate_begin_ptr__3_0 00000001800300d0     itt_notify.obj
 0003:000000d8       __itt_heap_reset_detection_ptr__3_0 00000001800300d8     itt_notify.obj
 0003:000000e0       __itt_stack_callee_leave_ptr__3_0 00000001800300e0     itt_notify.obj
 0003:000000e8       __itt_heap_reallocate_begin_ptr__3_0 00000001800300e8     itt_notify.obj
 0003:000000f0       __itt_counter_inc_delta_ptr__3_0 00000001800300f0     itt_notify.obj
 0003:000000f8       __itt_stack_caller_destroy_ptr__3_0 00000001800300f8     itt_notify.obj
 0003:00000100       __itt_model_disable_push_ptr__3_0 0000000180030100     itt_notify.obj
 0003:00000108       __itt_thr_name_setW_ptr__3_0 0000000180030108     itt_notify.obj
 0003:00000110       __itt_model_task_beginW_ptr__3_0 0000000180030110     itt_notify.obj
 0003:00000118       __itt_thr_mode_set_ptr__3_0 0000000180030118     itt_notify.obj
 0003:00000120       __itt_metadata_str_addA_ptr__3_0 0000000180030120     itt_notify.obj
 0003:00000128       __itt_mark_global_off_ptr__3_0 0000000180030128     itt_notify.obj
 0003:00000130       __itt_suppress_clear_range_ptr__3_0 0000000180030130     itt_notify.obj
 0003:00000138       __itt_notify_sync_nameW_ptr__3_0 0000000180030138     itt_notify.obj
 0003:00000140       __itt_sync_set_nameA_ptr__3_0 0000000180030140     itt_notify.obj
 0003:00000148       __itt_metadata_str_addW_ptr__3_0 0000000180030148     itt_notify.obj
 0003:00000150       __itt_model_record_deallocation_ptr__3_0 0000000180030150     itt_notify.obj
 0003:00000158       __itt_suppress_pop_ptr__3_0 0000000180030158     itt_notify.obj
 0003:00000160       __itt_stack_callee_enter_ptr__3_0 0000000180030160     itt_notify.obj
 0003:00000168       __itt_model_site_beginA_ptr__3_0 0000000180030168     itt_notify.obj
 0003:00000170       __itt_state_set_ptr__3_0   0000000180030170     itt_notify.obj
 0003:00000178       __itt_counter_create_typedW_ptr__3_0 0000000180030178     itt_notify.obj
 0003:00000180       __itt_notify_sync_prepare_ptr__3_0 0000000180030180     itt_notify.obj
 0003:00000188       __itt_state_get_ptr__3_0   0000000180030188     itt_notify.obj
 0003:00000190       __itt_model_lock_release_2_ptr__3_0 0000000180030190     itt_notify.obj
 0003:00000198       __itt_domain_createW_ptr__3_0 0000000180030198     itt_notify.obj
 0003:000001a0       __itt_obj_mode_set_ptr__3_0 00000001800301a0     itt_notify.obj
 0003:000001a8       __itt_heap_free_end_ptr__3_0 00000001800301a8     itt_notify.obj
 0003:000001b0       __itt_sync_set_nameW_ptr__3_0 00000001800301b0     itt_notify.obj
 0003:000001b8       __itt_metadata_str_add_with_scopeA_ptr__3_0 00000001800301b8     itt_notify.obj
 0003:000001c0       __itt_model_record_allocation_ptr__3_0 00000001800301c0     itt_notify.obj
 0003:000001c8       __itt_fsync_releasing_ptr__3_0 00000001800301c8     itt_notify.obj
 0003:000001d0       __itt_notify_sync_acquired_ptr__3_0 00000001800301d0     itt_notify.obj
 0003:000001d8       __itt_frame_createA_ptr__3_0 00000001800301d8     itt_notify.obj
 0003:000001e0       __itt_memory_update_ptr__3_0 00000001800301e0     itt_notify.obj
 0003:000001e8       __itt_counter_createW_ptr__3_0 00000001800301e8     itt_notify.obj
 0003:000001f0       __itt_domain_createA_ptr__3_0 00000001800301f0     itt_notify.obj
 0003:000001f8       __itt_module_loadW_ptr__3_0 00000001800301f8     itt_notify.obj
 0003:00000200       __itt_pause_ptr__3_0       0000000180030200     itt_notify.obj
 0003:00000208       __itt_clock_domain_create_ptr__3_0 0000000180030208     itt_notify.obj
 0003:00000210       __itt_notify_sync_cancel_ptr__3_0 0000000180030210     itt_notify.obj
 0003:00000218       __itt_task_begin_overlapped_ptr__3_0 0000000180030218     itt_notify.obj
 0003:00000220       __itt_model_site_end_ptr__3_0 0000000180030220     itt_notify.obj
 0003:00000228       __itt_thread_set_nameW_ptr__3_0 0000000180030228     itt_notify.obj
 0003:00000230       __itt_frame_end_v3_ptr__3_0 0000000180030230     itt_notify.obj
 0003:00000238       __itt_task_begin_overlapped_ex_ptr__3_0 0000000180030238     itt_notify.obj
 0003:00001ca8       __itt_sync_createA_ptr__3_0 0000000180031ca8     itt_notify.obj
 0003:00001cb0       __itt_task_end_overlapped_ptr__3_0 0000000180031cb0     itt_notify.obj
 0003:00001cb8       __itt_string_handle_createW_ptr__3_0 0000000180031cb8     itt_notify.obj
 0003:00001cc0       __itt_stack_caller_create_ptr__3_0 0000000180031cc0     itt_notify.obj
 0003:00001cc8       __itt_model_task_begin_ptr__3_0 0000000180031cc8     itt_notify.obj
 0003:00001cd0       __itt_fsync_cancel_ptr__3_0 0000000180031cd0     itt_notify.obj
 0003:00001cd8       __itt_model_clear_uses_ptr__3_0 0000000180031cd8     itt_notify.obj
 0003:00001ce0       __itt_model_iteration_taskAL_ptr__3_0 0000000180031ce0     itt_notify.obj
 0003:00001ce8       __itt_frame_createW_ptr__3_0 0000000180031ce8     itt_notify.obj
 0003:00001cf0       __itt_set_track_ptr__3_0   0000000180031cf0     itt_notify.obj
 0003:00001cf8       __itt_sync_renameW_ptr__3_0 0000000180031cf8     itt_notify.obj
 0003:00001d00       __itt_model_task_end_ptr__3_0 0000000180031d00     itt_notify.obj
 0003:00001d08       __itt_counter_dec_v3_ptr__3_0 0000000180031d08     itt_notify.obj
 0003:00001d10       __itt_counter_set_value_ex_ptr__3_0 0000000180031d10     itt_notify.obj
 0003:00001d18       __itt_counter_create_typedA_ptr__3_0 0000000180031d18     itt_notify.obj
 0003:00001d20       __itt_frame_begin_ptr__3_0 0000000180031d20     itt_notify.obj
 0003:00001d28       __itt_fsync_prepare_ptr__3_0 0000000180031d28     itt_notify.obj
 0003:00001d30       __itt_mark_createA_ptr__3_0 0000000180031d30     itt_notify.obj
 0003:00001d38       __itt_model_induction_uses_ptr__3_0 0000000180031d38     itt_notify.obj
 0003:00001d40       __itt_clock_domain_reset_ptr__3_0 0000000180031d40     itt_notify.obj
 0003:00001d48       __itt_pt_region_createW_ptr__3_0 0000000180031d48     itt_notify.obj
 0003:00001d50       __itt_heap_record_ptr__3_0 0000000180031d50     itt_notify.obj
 0003:00001d58       __itt_sync_destroy_ptr__3_0 0000000180031d58     itt_notify.obj
 0003:00001d60       __itt_model_task_end_2_ptr__3_0 0000000180031d60     itt_notify.obj
 0003:00001d68       __itt_sync_cancel_ptr__3_0 0000000180031d68     itt_notify.obj
 0003:00001d70       __itt_enable_attach_ptr__3_0 0000000180031d70     itt_notify.obj
 0003:00001d78       __itt_model_lock_acquire_2_ptr__3_0 0000000180031d78     itt_notify.obj
 0003:00001d80       __itt_track_create_ptr__3_0 0000000180031d80     itt_notify.obj
 0003:00001d88       __itt_model_site_beginAL_ptr__3_0 0000000180031d88     itt_notify.obj
 0003:00001d90       __itt_relation_add_ex_ptr__3_0 0000000180031d90     itt_notify.obj
 0003:00001d98       __itt_task_end_ex_ptr__3_0 0000000180031d98     itt_notify.obj
 0003:00001da0       __itt_mark_globalA_ptr__3_0 0000000180031da0     itt_notify.obj
 0003:00001da8       __itt_model_aggregate_task_ptr__3_0 0000000180031da8     itt_notify.obj
 0003:00001db0       __itt_api_version_ptr__3_0 0000000180031db0     itt_notify.obj
 0003:00001db8       __itt_heap_record_memory_growth_end_ptr__3_0 0000000180031db8     itt_notify.obj
 0003:00001dc0       ?__itt__ittapi_global@@3U___itt_global@@A 0000000180031dc0     itt_notify.obj
 0003:00001e60       __itt_region_begin_ptr__3_0 0000000180031e60     itt_notify.obj
 0003:00001e68       __itt_model_site_beginW_ptr__3_0 0000000180031e68     itt_notify.obj
 0003:00001e70       __itt_event_createW_ptr__3_0 0000000180031e70     itt_notify.obj
 0003:00001e78       __itt_event_end_ptr__3_0   0000000180031e78     itt_notify.obj
 0003:00001e80       __itt_task_begin_ex_ptr__3_0 0000000180031e80     itt_notify.obj
 0003:00001e88       __itt_relation_add_to_current_ex_ptr__3_0 0000000180031e88     itt_notify.obj
 0003:00001e90       __itt_counter_inc_delta_v3_ptr__3_0 0000000180031e90     itt_notify.obj
 0003:00001e98       __itt_av_saveW_ptr__3_0    0000000180031e98     itt_notify.obj
 0003:00001ea0       __itt_metadata_str_add_with_scopeW_ptr__3_0 0000000180031ea0     itt_notify.obj
 0003:00001ea8       __itt_heap_free_begin_ptr__3_0 0000000180031ea8     itt_notify.obj
 0003:00001eb0       __itt_markA_ptr__3_0       0000000180031eb0     itt_notify.obj
 0003:00001eb8       __itt_model_task_beginA_ptr__3_0 0000000180031eb8     itt_notify.obj
 0003:00001ec0       __itt_suppress_mark_range_ptr__3_0 0000000180031ec0     itt_notify.obj
 0003:00001ec8       __itt_detach_ptr__3_0      0000000180031ec8     itt_notify.obj
 0003:00001ed0       __itt_relation_add_to_current_ptr__3_0 0000000180031ed0     itt_notify.obj
 0003:00001ed8       __itt_thr_ignore_ptr__3_0  0000000180031ed8     itt_notify.obj
 0003:00001ee0       __itt_counter_inc_ptr__3_0 0000000180031ee0     itt_notify.obj
 0003:00001ee8       __itt_frame_submit_v3_ptr__3_0 0000000180031ee8     itt_notify.obj
 0003:00001ef0       __itt_metadata_add_with_scope_ptr__3_0 0000000180031ef0     itt_notify.obj
 0003:00001ef8       __itt_model_site_end_2_ptr__3_0 0000000180031ef8     itt_notify.obj
 0003:00001f00       __itt_relation_add_ptr__3_0 0000000180031f00     itt_notify.obj
 0003:00001f08       __itt_sync_renameA_ptr__3_0 0000000180031f08     itt_notify.obj
 0003:00001f10       __itt_sync_releasing_ptr__3_0 0000000180031f10     itt_notify.obj
 0003:00001f18       __itt_sync_prepare_ptr__3_0 0000000180031f18     itt_notify.obj
 0003:00001f20       __itt_sync_acquired_ptr__3_0 0000000180031f20     itt_notify.obj
 0003:00001f28       __itt_counter_inc_v3_ptr__3_0 0000000180031f28     itt_notify.obj
 0003:00001f30       __itt_counter_dec_delta_ptr__3_0 0000000180031f30     itt_notify.obj
 0003:00001f38       __itt_fsync_acquired_ptr__3_0 0000000180031f38     itt_notify.obj
 0003:00001f40       __itt_heap_internal_access_begin_ptr__3_0 0000000180031f40     itt_notify.obj
 0003:00001f48       __itt_counter_dec_delta_v3_ptr__3_0 0000000180031f48     itt_notify.obj
 0003:00001f50       __itt_memory_write_ptr__3_0 0000000180031f50     itt_notify.obj
 0003:00001f58       __itt_model_iteration_taskW_ptr__3_0 0000000180031f58     itt_notify.obj
 0003:00001f60       __itt_mark_off_ptr__3_0    0000000180031f60     itt_notify.obj
 0003:00001f68       __itt_heap_function_createW_ptr__3_0 0000000180031f68     itt_notify.obj
 0003:00001f70       __itt_id_destroy_ex_ptr__3_0 0000000180031f70     itt_notify.obj
 0003:00001f78       __itt_memory_read_ptr__3_0 0000000180031f78     itt_notify.obj
 0003:00001f80       __itt_task_group_ptr__3_0  0000000180031f80     itt_notify.obj
 0003:00001f88       __itt_mark_createW_ptr__3_0 0000000180031f88     itt_notify.obj
 0003:00001f90       __itt_counter_destroy_ptr__3_0 0000000180031f90     itt_notify.obj
 0003:00001f98       __itt_heap_reallocate_end_ptr__3_0 0000000180031f98     itt_notify.obj
 0003:00001fa0       __itt_heap_record_memory_growth_begin_ptr__3_0 0000000180031fa0     itt_notify.obj
 0003:00001fa8       __itt_id_create_ptr__3_0   0000000180031fa8     itt_notify.obj
 0003:00001fb0       __itt_event_createA_ptr__3_0 0000000180031fb0     itt_notify.obj
 0003:00001fb8       __itt_module_loadA_ptr__3_0 0000000180031fb8     itt_notify.obj
 0003:00001fc0       __itt_task_end_overlapped_ex_ptr__3_0 0000000180031fc0     itt_notify.obj
 0003:00001fc8       __itt_heap_allocate_end_ptr__3_0 0000000180031fc8     itt_notify.obj
 0003:00001fd0       __itt_model_iteration_taskA_ptr__3_0 0000000180031fd0     itt_notify.obj
 0003:00001fd8       __itt_av_saveA_ptr__3_0    0000000180031fd8     itt_notify.obj
 0003:00001fe0       __itt_task_end_ptr__3_0    0000000180031fe0     itt_notify.obj
 0003:00001fe8       __itt_get_timestamp_ptr__3_0 0000000180031fe8     itt_notify.obj
 0003:00001ff0       __itt_notify_sync_nameA_ptr__3_0 0000000180031ff0     itt_notify.obj
 0003:00001ff8       __itt_task_begin_ptr__3_0  0000000180031ff8     itt_notify.obj
 0003:00002000       __itt_mark_globalW_ptr__3_0 0000000180032000     itt_notify.obj
 0003:00002008       __itt_task_begin_fn_ex_ptr__3_0 0000000180032008     itt_notify.obj
 0003:00002010       __itt_thread_set_nameA_ptr__3_0 0000000180032010     itt_notify.obj
 0003:00002018       __itt_pt_region_createA_ptr__3_0 0000000180032018     itt_notify.obj
 0003:00002020       __itt_id_create_ex_ptr__3_0 0000000180032020     itt_notify.obj
 0003:00002028       __itt_model_observe_uses_ptr__3_0 0000000180032028     itt_notify.obj
 0003:00002030       __itt_model_lock_release_ptr__3_0 0000000180032030     itt_notify.obj
 0003:00002038       __itt_model_reduction_uses_ptr__3_0 0000000180032038     itt_notify.obj
 0003:00002040       __itt_resume_ptr__3_0      0000000180032040     itt_notify.obj
 0003:00002048       __itt_suppress_push_ptr__3_0 0000000180032048     itt_notify.obj
 0003:00002050       __itt_model_lock_acquire_ptr__3_0 0000000180032050     itt_notify.obj
 0003:00002058       __itt_counter_set_value_ptr__3_0 0000000180032058     itt_notify.obj
 0003:00002060       __itt_id_destroy_ptr__3_0  0000000180032060     itt_notify.obj
 0003:00002068       __itt_task_begin_fn_ptr__3_0 0000000180032068     itt_notify.obj
 0003:00002070       __itt_event_start_ptr__3_0 0000000180032070     itt_notify.obj
 0003:00002078       __itt_string_handle_createA_ptr__3_0 0000000180032078     itt_notify.obj
 0003:00002080       __itt_counter_createA_ptr__3_0 0000000180032080     itt_notify.obj
 0003:00002088       __itt_sync_createW_ptr__3_0 0000000180032088     itt_notify.obj
 0003:00002090       __itt_marker_ptr__3_0      0000000180032090     itt_notify.obj
 0003:000020d8       ?NumGroups@ProcessorGroupInfo@internal@tbb@@2HA 00000001800320d8     tbb_misc_ex.obj
 0003:00002700       _fltused                   0000000180032700     MSVCRT:fltused.obj
 0003:00002710       ??_R0?AVbad_array_new_length@std@@@8 0000000180032710     MSVCRT:throw_bad_alloc.obj
 0003:00002740       ??_R0?AVuser_abort@tbb@@@8 0000000180032740     concurrent_queue.obj
 0003:00002768       ??_R0?AVout_of_range@std@@@8 0000000180032768     tbb_misc.obj
 0003:00002790       ??_R0?AVinvalid_argument@std@@@8 0000000180032790     tbb_misc.obj
 0003:000027c0       ??_R0?AVexception@std@@@8  00000001800327c0     tbb_misc.obj
 0003:000027e8       ??_R0?AVruntime_error@std@@@8 00000001800327e8     tbb_misc.obj
 0003:00002810       ??_R0?AVbad_alloc@std@@@8  0000000180032810     tbb_misc.obj
 0003:00002838       ??_R0?AVinvalid_multiple_scheduling@tbb@@@8 0000000180032838     tbb_misc.obj
 0003:00002870       ??_R0?AVmissing_wait@tbb@@@8 0000000180032870     tbb_misc.obj
 0003:00002898       ??_R0?AVrange_error@std@@@8 0000000180032898     tbb_misc.obj
 0003:000028c0       ??_R0?AVlength_error@std@@@8 00000001800328c0     tbb_misc.obj
 0003:000028e8       ??_R0?AVimproper_lock@tbb@@@8 00000001800328e8     tbb_misc.obj
 0003:00002910       ??_R0?AVlogic_error@std@@@8 0000000180032910     tbb_misc.obj
 0003:00002938       ??_R0?AVbad_last_alloc@tbb@@@8 0000000180032938     tbb_misc.obj
 0003:00002968       ??_R0?AVtbb_exception@tbb@@@8 0000000180032968     task_group_context.obj
 0003:00002990       ??_R0?AVcaptured_exception@tbb@@@8 0000000180032990     task_group_context.obj
 0003:000029c0       ??_R0?AV?$delegated_function@Vspawn_functor@graph@interface10@flow@tbb@@X@internal@interface7@tbb@@@8 00000001800329c0     arena.obj
 0003:00002a30       ??_R0?AVdelegate_base@internal@interface7@tbb@@@8 0000000180032a30     arena.obj
 0003:00002a70       ??_R0?AVtype_info@@@8      0000000180032a70     MSVCRT:std_type_info_static.obj
 0003:00002a90       ??_R0?AVconcurrent_queue_base_v3@internal@tbb@@@8 0000000180032a90     concurrent_queue.obj
 0003:00002ad0       ??_R0?AVno_assign@internal@tbb@@@8 0000000180032ad0     concurrent_queue.obj
 0003:00002b00       ??_R0?AVno_copy@internal@tbb@@@8 0000000180032b00     concurrent_queue.obj
 0003:00002b30       ??_R0?AUtask_info@internal@tbb@@@8 0000000180032b30     pipeline.obj
 0003:00002b60       ??_R0?AVpipeline_root_task@internal@tbb@@@8 0000000180032b60     pipeline.obj
 0003:00002b98       ??_R0?AVtask_base@internal@interface5@tbb@@@8 0000000180032b98     pipeline.obj
 0003:00002bd0       ??_R0?AVfilter@tbb@@@8     0000000180032bd0     pipeline.obj
 0003:00002bf8       ??_R0?AVtask@tbb@@@8       0000000180032bf8     pipeline.obj
 0003:00002c18       ??_R0?AVpipeline@tbb@@@8   0000000180032c18     pipeline.obj
 0003:00002c40       ??_R0?AVstage_task@internal@tbb@@@8 0000000180032c40     pipeline.obj
 0003:00002c70       ??_R0?AVversioned_object@rml@@@8 0000000180032c70     private_server.obj
 0003:00002ca0       ??_R0?AVserver@rml@@@8     0000000180032ca0     private_server.obj
 0003:00002cc8       ??_R0?AVtbb_server@rml@internal@tbb@@@8 0000000180032cc8     private_server.obj
 0003:00002d00       ??_R0?AVprivate_server@rml@internal@tbb@@@8 0000000180032d00     private_server.obj
 0003:00002d38       ??_R0?AVtbb_client@rml@internal@tbb@@@8 0000000180032d38     market.obj
 0003:00002d70       ??_R0?AVclient@rml@@@8     0000000180032d70     market.obj
 0003:00002d98       ??_R0?AVmarket@internal@tbb@@@8 0000000180032d98     market.obj
 0003:00002dc8       ??_R0?AVempty_task@tbb@@@8 0000000180032dc8     arena.obj
 0003:00002df0       ??_R0?AVtask_scheduler_observer_v3@internal@tbb@@@8 0000000180032df0     arena.obj
 0003:00002e30       ??_R0?AVdelegated_task@internal@interface7@tbb@@@8 0000000180032e30     arena.obj
 0003:00002e70       ??_R0?AV?$function_task@Vspawn_functor@graph@interface10@flow@tbb@@@internal@tbb@@@8 0000000180032e70     arena.obj
 0003:00002ed0       ??_R0?AVwait_task@internal@interface7@tbb@@@8 0000000180032ed0     arena.obj
 0003:00002f08       ??_R0?AVtask_scheduler_observer@interface6@tbb@@@8 0000000180032f08     arena.obj
 0003:00002f48       ??_R0?AVnuma_binding_observer@internal@tbb@@@8 0000000180032f48     arena.obj
 0003:00002f88       ??_R0?AVjob@rml@@@8        0000000180032f88     scheduler.obj
 0003:00002fa8       ??_R0?AVscheduler@internal@tbb@@@8 0000000180032fa8     scheduler.obj
 0003:00002fe0       ??_R0?AV?$custom_scheduler@UDefaultSchedulerTraits@internal@tbb@@@internal@tbb@@@8 0000000180032fe0     scheduler.obj
 0003:00003040       ??_R0?AUscheduler_state@internal@tbb@@@8 0000000180033040     scheduler.obj
 0003:00003080       ??_R0?AV?$custom_scheduler@UIntelSchedulerTraits@internal@tbb@@@internal@tbb@@@8 0000000180033080     scheduler.obj
 0003:000030e0       ??_R0?AVgeneric_scheduler@internal@tbb@@@8 00000001800330e0     scheduler.obj
 0003:00003118       ??_R0?AUintrusive_list_node@internal@tbb@@@8 0000000180033118     scheduler.obj
 0003:00003150       ??_R0?AU?$padded@Vcontrol_storage@internal@tbb@@$0IA@@internal@tbb@@@8 0000000180033150     tbb_main.obj
 0003:000031a8       ??_R0?AVcontrol_storage@internal@tbb@@@8 00000001800331a8     tbb_main.obj
 0003:000031e0       ??_R0?AVstack_size_control@internal@tbb@@@8 00000001800331e0     tbb_main.obj
 0003:00003218       ??_R0?AVallowed_parallelism_control@internal@tbb@@@8 0000000180033218     tbb_main.obj
 0003:00003260       ??_R0?AU?$padded_base@Vcontrol_storage@internal@tbb@@$0IA@$0CA@@internal@tbb@@@8 0000000180033260     tbb_main.obj
 0003:000032c0       ??_R0?AVconcurrent_queue_base@internal@tbb@@@8 00000001800332c0     concurrent_queue_v2.obj
 0003:00003870       ?__type_info_root_node@@3U__type_info_node@@A 0000000180033870     MSVCRT:tncleanup.obj
 0003:000038c8       __scrt_current_native_startup_state 00000001800338c8     MSVCRT:utility.obj
 0003:000038d0       __scrt_native_startup_lock 00000001800338d0     MSVCRT:utility.obj
 0003:00003914       __scrt_debugger_hook_flag  0000000180033914     MSVCRT:utility_desktop.obj
 0003:00003918       __castguard_check_failure_os_handled_fptr 0000000180033918     MSVCRT:guard_support.obj
 0003:00003920       _tls_index                 0000000180033920     MSVCRT:tlssup.obj
 0003:00003924       __favor                    0000000180033924     MSVCRT:cpu_disp.obj
 0003:00003928       ?_OptionsStorage@?1??__local_stdio_scanf_options@@9@4_KA 0000000180033928     MSVCRT:default_local_stdio_options.obj
 0003:00003930       ?init_dl_data_state@internal@tbb@@3U?$atomic@W4do_once_state@internal@tbb@@@2@A 0000000180033930     dynamic_link.obj
 0003:00003934       ?HoleIndex@ProcessorGroupInfo@internal@tbb@@2HA 0000000180033934     tbb_misc_ex.obj
 0003:00003938       ?handles@internal@tbb@@3Uhandles_t@12@A 0000000180033938     dynamic_link.obj
 0003:00003990       ?theProcessorGroups@internal@tbb@@3PAUProcessorGroupInfo@12@A 0000000180033990     tbb_misc_ex.obj
 0003:00003dd0       ?the_context_state_propagation_epoch@internal@tbb@@3_KA 0000000180033dd0     scheduler.obj
 0003:00003dd8       ?theMarket@market@internal@tbb@@0PEAV123@EA 0000000180033dd8     tbb_main.obj
 0003:00003de0       ?DefaultPageSize@governor@internal@tbb@@0_KA 0000000180033de0     tbb_main.obj
 0003:00003de8       ?count@__TBB_InitOnce@internal@tbb@@0U?$atomic@H@3@A 0000000180033de8     tbb_main.obj
 0003:00003dec       ?InitializationLock@__TBB_InitOnce@internal@tbb@@0EA 0000000180033dec     tbb_main.obj
 0003:00003ded       ?is_speculation_enabled@governor@internal@tbb@@0_NA 0000000180033ded     tbb_main.obj
 0003:00003dee       ?InitializationDone@__TBB_InitOnce@internal@tbb@@0_NA 0000000180033dee     tbb_main.obj
 0003:00003def       ?UsePrivateRML@governor@internal@tbb@@0_NA 0000000180033def     tbb_main.obj
 0003:00003df0       ?DefaultNumberOfThreads@governor@internal@tbb@@0IA 0000000180033df0     tbb_main.obj
 0003:00003df4       ?theTLS@governor@internal@tbb@@0V?$basic_tls@_K@23@A 0000000180033df4     tbb_main.obj
 0003:00003df8       ?AllocateSchedulerPtr@internal@tbb@@3P6APEAVgeneric_scheduler@12@AEAVmarket@12@_N@ZEA 0000000180033df8     tbb_main.obj
 0003:00003e00       ?theRMLServerFactory@governor@internal@tbb@@0Vtbb_factory@rml@23@A 0000000180033e00     tbb_main.obj
 0003:00003e28       ?is_rethrow_broken@governor@internal@tbb@@0_NA 0000000180033e28     tbb_main.obj
 0003:00003e2a       ?the_context_state_propagation_mutex@internal@tbb@@3Vspin_mutex@2@A 0000000180033e2a     scheduler.obj
 0003:00003e2b       ?theMarketMutex@market@internal@tbb@@0Vspin_mutex@3@A 0000000180033e2b     tbb_main.obj
 0003:00003f30       ?the_global_observer_list@internal@tbb@@3U?$padded@Vobserver_list@internal@tbb@@$0IA@@12@A 0000000180033f30     observer_proxy.obj
 0003:00005118       ?_OptionsStorage@?1??__local_stdio_printf_options@@9@4_KA 0000000180035118     private_server.obj
 0003:00005130       __dyn_tls_init_callback    0000000180035130     <common>

 entry point at        0001:0001efc8

 Static symbols

 0000:fffc5000       .debug$S                   0000000180000000     tbb.exp
 0000:fffc5000       .debug$S                   0000000180000000     msvcprt:MSVCP140.dll
 0000:fffc5000       .debug$S                   0000000180000000     msvcprt:MSVCP140.dll
 0000:fffc5000       .debug$S                   0000000180000000     msvcprt:MSVCP140.dll
 0000:fffc5000       .debug$S                   0000000180000000     msvcprt:MSVCP140.dll
 0000:fffc5000       .debug$S                   0000000180000000     msvcprt:MSVCP140.dll
 0000:fffc5000       .debug$S                   0000000180000000     msvcprt:MSVCP140.dll
 0000:fffc5000       .debug$S                   0000000180000000     msvcprt:MSVCP140.dll
 0000:fffc5000       .debug$S                   0000000180000000     vcruntime:VCRUNTIME140.dll
 0000:fffc5000       .debug$S                   0000000180000000     vcruntime:VCRUNTIME140.dll
 0000:fffc5000       .debug$S                   0000000180000000     vcruntime:VCRUNTIME140.dll
 0000:fffc5000       .debug$S                   0000000180000000     vcruntime:VCRUNTIME140.dll
 0000:fffc5000       .debug$S                   0000000180000000     vcruntime:VCRUNTIME140.dll
 0000:fffc5000       .debug$S                   0000000180000000     vcruntime:VCRUNTIME140.dll
 0000:fffc5000       .debug$S                   0000000180000000     vcruntime:VCRUNTIME140.dll
 0000:fffc5000       .debug$S                   0000000180000000     vcruntime:VCRUNTIME140.dll
 0000:fffc5000       .debug$S                   0000000180000000     vcruntime:VCRUNTIME140.dll
 0000:fffc5000       .debug$S                   0000000180000000     vcruntime:VCRUNTIME140.dll
 0000:fffc5000       .debug$S                   0000000180000000     vcruntime:VCRUNTIME140.dll
 0000:fffc5000       .debug$S                   0000000180000000     vcruntime:VCRUNTIME140.dll
 0000:fffc5000       .debug$S                   0000000180000000     vcruntime:VCRUNTIME140.dll
 0000:fffc5000       .debug$S                   0000000180000000     vcruntime:VCRUNTIME140.dll
 0000:fffc5000       .debug$S                   0000000180000000     vcruntime:VCRUNTIME140.dll
 0000:fffc5000       .debug$S                   0000000180000000     vcruntime:VCRUNTIME140.dll
 0000:fffc5000       .debug$S                   0000000180000000     vcruntime:VCRUNTIME140_1.dll
 0000:fffc5000       .debug$S                   0000000180000000     ucrt:api-ms-win-crt-environment-l1-1-0.dll
 0000:fffc5000       .debug$S                   0000000180000000     ucrt:api-ms-win-crt-heap-l1-1-0.dll
 0000:fffc5000       .debug$S                   0000000180000000     ucrt:api-ms-win-crt-heap-l1-1-0.dll
 0000:fffc5000       .debug$S                   0000000180000000     ucrt:api-ms-win-crt-heap-l1-1-0.dll
 0000:fffc5000       .debug$S                   0000000180000000     ucrt:api-ms-win-crt-runtime-l1-1-0.dll
 0000:fffc5000       .debug$S                   0000000180000000     ucrt:api-ms-win-crt-runtime-l1-1-0.dll
 0000:fffc5000       .debug$S                   0000000180000000     ucrt:api-ms-win-crt-runtime-l1-1-0.dll
 0000:fffc5000       .debug$S                   0000000180000000     ucrt:api-ms-win-crt-runtime-l1-1-0.dll
 0000:fffc5000       .debug$S                   0000000180000000     ucrt:api-ms-win-crt-runtime-l1-1-0.dll
 0000:fffc5000       .debug$S                   0000000180000000     ucrt:api-ms-win-crt-runtime-l1-1-0.dll
 0000:fffc5000       .debug$S                   0000000180000000     ucrt:api-ms-win-crt-runtime-l1-1-0.dll
 0000:fffc5000       .debug$S                   0000000180000000     ucrt:api-ms-win-crt-runtime-l1-1-0.dll
 0000:fffc5000       .debug$S                   0000000180000000     ucrt:api-ms-win-crt-runtime-l1-1-0.dll
 0000:fffc5000       .debug$S                   0000000180000000     ucrt:api-ms-win-crt-runtime-l1-1-0.dll
 0000:fffc5000       .debug$S                   0000000180000000     ucrt:api-ms-win-crt-runtime-l1-1-0.dll
 0000:fffc5000       .debug$S                   0000000180000000     ucrt:api-ms-win-crt-runtime-l1-1-0.dll
 0000:fffc5000       .debug$S                   0000000180000000     ucrt:api-ms-win-crt-runtime-l1-1-0.dll
 0000:fffc5000       .debug$S                   0000000180000000     ucrt:api-ms-win-crt-runtime-l1-1-0.dll
 0000:fffc5000       .debug$S                   0000000180000000     ucrt:api-ms-win-crt-runtime-l1-1-0.dll
 0000:fffc5000       .debug$S                   0000000180000000     ucrt:api-ms-win-crt-runtime-l1-1-0.dll
 0000:fffc5000       .debug$S                   0000000180000000     ucrt:api-ms-win-crt-runtime-l1-1-0.dll
 0000:fffc5000       .debug$S                   0000000180000000     ucrt:api-ms-win-crt-stdio-l1-1-0.dll
 0000:fffc5000       .debug$S                   0000000180000000     ucrt:api-ms-win-crt-stdio-l1-1-0.dll
 0000:fffc5000       .debug$S                   0000000180000000     ucrt:api-ms-win-crt-stdio-l1-1-0.dll
 0000:fffc5000       .debug$S                   0000000180000000     ucrt:api-ms-win-crt-stdio-l1-1-0.dll
 0000:fffc5000       .debug$S                   0000000180000000     ucrt:api-ms-win-crt-stdio-l1-1-0.dll
 0000:fffc5000       .debug$S                   0000000180000000     ucrt:api-ms-win-crt-string-l1-1-0.dll
 0000:fffc5000       .debug$S                   0000000180000000     ucrt:api-ms-win-crt-string-l1-1-0.dll
 0000:fffc5000       .debug$S                   0000000180000000     ucrt:api-ms-win-crt-string-l1-1-0.dll
 0000:fffc5000       .debug$S                   0000000180000000     ucrt:api-ms-win-crt-string-l1-1-0.dll
 0000:fffc5000       .debug$S                   0000000180000000     ucrt:api-ms-win-crt-string-l1-1-0.dll
 0000:fffc5000       .debug$S                   0000000180000000     kernel32:KERNEL32.dll
 0000:fffc5000       .debug$S                   0000000180000000     kernel32:KERNEL32.dll
 0000:fffc5000       .debug$S                   0000000180000000     kernel32:KERNEL32.dll
 0000:fffc5000       .debug$S                   0000000180000000     kernel32:KERNEL32.dll
 0000:fffc5000       .debug$S                   0000000180000000     kernel32:KERNEL32.dll
 0000:fffc5000       .debug$S                   0000000180000000     kernel32:KERNEL32.dll
 0000:fffc5000       .debug$S                   0000000180000000     kernel32:KERNEL32.dll
 0000:fffc5000       .debug$S                   0000000180000000     kernel32:KERNEL32.dll
 0000:fffc5000       .debug$S                   0000000180000000     kernel32:KERNEL32.dll
 0000:fffc5000       .debug$S                   0000000180000000     kernel32:KERNEL32.dll
 0000:fffc5000       .debug$S                   0000000180000000     kernel32:KERNEL32.dll
 0000:fffc5000       .debug$S                   0000000180000000     kernel32:KERNEL32.dll
 0000:fffc5000       .debug$S                   0000000180000000     kernel32:KERNEL32.dll
 0000:fffc5000       .debug$S                   0000000180000000     kernel32:KERNEL32.dll
 0000:fffc5000       .debug$S                   0000000180000000     kernel32:KERNEL32.dll
 0000:fffc5000       .debug$S                   0000000180000000     kernel32:KERNEL32.dll
 0000:fffc5000       .debug$S                   0000000180000000     kernel32:KERNEL32.dll
 0000:fffc5000       .debug$S                   0000000180000000     kernel32:KERNEL32.dll
 0000:fffc5000       .debug$S                   0000000180000000     kernel32:KERNEL32.dll
 0000:fffc5000       .debug$S                   0000000180000000     kernel32:KERNEL32.dll
 0000:fffc5000       .debug$S                   0000000180000000     kernel32:KERNEL32.dll
 0000:fffc5000       .debug$S                   0000000180000000     kernel32:KERNEL32.dll
 0000:fffc5000       .debug$S                   0000000180000000     kernel32:KERNEL32.dll
 0000:fffc5000       .debug$S                   0000000180000000     kernel32:KERNEL32.dll
 0000:fffc5000       .debug$S                   0000000180000000     kernel32:KERNEL32.dll
 0000:fffc5000       .debug$S                   0000000180000000     kernel32:KERNEL32.dll
 0000:fffc5000       .debug$S                   0000000180000000     kernel32:KERNEL32.dll
 0000:fffc5000       .debug$S                   0000000180000000     kernel32:KERNEL32.dll
 0000:fffc5000       .debug$S                   0000000180000000     kernel32:KERNEL32.dll
 0000:fffc5000       .debug$S                   0000000180000000     kernel32:KERNEL32.dll
 0000:fffc5000       .debug$S                   0000000180000000     kernel32:KERNEL32.dll
 0000:fffc5000       .debug$S                   0000000180000000     kernel32:KERNEL32.dll
 0000:fffc5000       .debug$S                   0000000180000000     kernel32:KERNEL32.dll
 0000:fffc5000       .debug$S                   0000000180000000     kernel32:KERNEL32.dll
 0000:fffc5000       .debug$S                   0000000180000000     kernel32:KERNEL32.dll
 0000:fffc5000       .debug$S                   0000000180000000     kernel32:KERNEL32.dll
 0000:fffc5000       .debug$S                   0000000180000000     kernel32:KERNEL32.dll
 0000:fffc5000       .debug$S                   0000000180000000     kernel32:KERNEL32.dll
 0000:fffc5000       .debug$S                   0000000180000000     kernel32:KERNEL32.dll
 0000:fffc5000       .debug$S                   0000000180000000     kernel32:KERNEL32.dll
 0000:fffc5000       .debug$S                   0000000180000000     kernel32:KERNEL32.dll
 0000:fffc5000       .debug$S                   0000000180000000     kernel32:KERNEL32.dll
 0000:fffc5000       .debug$S                   0000000180000000     kernel32:KERNEL32.dll
 0000:fffc5000       .debug$S                   0000000180000000     kernel32:KERNEL32.dll
 0000:fffc5000       .debug$S                   0000000180000000     kernel32:KERNEL32.dll
 0000:fffc5000       .debug$S                   0000000180000000     kernel32:KERNEL32.dll
 0000:fffc5000       .debug$S                   0000000180000000     kernel32:KERNEL32.dll
 0000:fffc5000       .debug$S                   0000000180000000     kernel32:KERNEL32.dll
 0000:fffc5000       .debug$S                   0000000180000000     kernel32:KERNEL32.dll
 0000:fffc5000       .debug$S                   0000000180000000     kernel32:KERNEL32.dll
 0000:fffc5000       .debug$S                   0000000180000000     kernel32:KERNEL32.dll
 0000:fffc5000       .debug$S                   0000000180000000     kernel32:KERNEL32.dll
 0000:fffc5000       .debug$S                   0000000180000000     kernel32:KERNEL32.dll
 0001:00000000       ??__Estatic_init_dl_data@internal@tbb@@YAXXZ 0000000180001000 f   dynamic_link.obj
 0001:00000010       ??__Ethe_dummy_context@internal@tbb@@YAXXZ 0000000180001010 f   scheduler.obj
 0001:00000070       ?dummy_bind_to_node@internal@tbb@@YAXPEAVbinding_handler@12@HH@Z 0000000180001070 f i governor.obj
 0001:00000070       ?dummy_deallocate_binding_handler@internal@tbb@@YAXPEAVbinding_handler@12@@Z 0000000180001070 f i governor.obj
 0001:00000070       ?dummy_restore_affinity@internal@tbb@@YAXPEAVbinding_handler@12@H@Z 0000000180001070 f i governor.obj
 0001:00000070       ?__itt_enable_attach_init_3_0@@YAXXZ 0000000180001070 f i itt_notify.obj
 0001:00002060       ??1segment_scope_guard@?1??enable_segment@helper@concurrent_vector_base_v3@internal@tbb@@SA_KAEAV345@_K1_N@Z@QEAA@XZ 0000000180003060 f   concurrent_vector.obj
 0001:000036a0       ?dynamic_link_warning@internal@tbb@@YAXW4dynamic_link_error_t@12@ZZ 00000001800046a0 f   dynamic_link.obj
 0001:000036b0       ?resolve_symbols@internal@tbb@@YA_NPEAUHINSTANCE__@@QEBUdynamic_link_descriptor@12@_K@Z 00000001800046b0 f   dynamic_link.obj
 0001:00003780       ?init_dl_data@internal@tbb@@YAXXZ 0000000180004780 f   dynamic_link.obj
 0001:00003a60       ?__itt_detach_init_3_0@@YAXXZ 0000000180004a60 f   itt_notify.obj
 0001:00003ab0       ?__itt_sync_createA_init_3_0@@YAXPEAXPEBD1H@Z 0000000180004ab0 f   itt_notify.obj
 0001:00003b30       ?__itt_sync_createW_init_3_0@@YAXPEAXPEB_W1H@Z 0000000180004b30 f   itt_notify.obj
 0001:00003bb0       ?__itt_sync_renameA_init_3_0@@YAXPEAXPEBD@Z 0000000180004bb0 f   itt_notify.obj
 0001:00003c10       ?__itt_sync_renameW_init_3_0@@YAXPEAXPEB_W@Z 0000000180004c10 f   itt_notify.obj
 0001:00003c70       ?__itt_sync_destroy_init_3_0@@YAXPEAX@Z 0000000180004c70 f   itt_notify.obj
 0001:00003cc0       ?__itt_sync_prepare_init_3_0@@YAXPEAX@Z 0000000180004cc0 f   itt_notify.obj
 0001:00003d10       ?__itt_sync_cancel_init_3_0@@YAXPEAX@Z 0000000180004d10 f   itt_notify.obj
 0001:00003d60       ?__itt_sync_acquired_init_3_0@@YAXPEAX@Z 0000000180004d60 f   itt_notify.obj
 0001:00003db0       ?__itt_sync_releasing_init_3_0@@YAXPEAX@Z 0000000180004db0 f   itt_notify.obj
 0001:00003e00       ?__itt_suppress_push_init_3_0@@YAXI@Z 0000000180004e00 f   itt_notify.obj
 0001:00003e50       ?__itt_suppress_pop_init_3_0@@YAXXZ 0000000180004e50 f   itt_notify.obj
 0001:00003ea0       ?__itt_suppress_mark_range_init_3_0@@YAXW4__itt_suppress_mode@@IPEAX_K@Z 0000000180004ea0 f   itt_notify.obj
 0001:00003f10       ?__itt_suppress_clear_range_init_3_0@@YAXW4__itt_suppress_mode@@IPEAX_K@Z 0000000180004f10 f   itt_notify.obj
 0001:00003f80       ?__itt_fsync_prepare_init_3_0@@YAXPEAX@Z 0000000180004f80 f   itt_notify.obj
 0001:00003fd0       ?__itt_fsync_cancel_init_3_0@@YAXPEAX@Z 0000000180004fd0 f   itt_notify.obj
 0001:00004020       ?__itt_fsync_acquired_init_3_0@@YAXPEAX@Z 0000000180005020 f   itt_notify.obj
 0001:00004070       ?__itt_fsync_releasing_init_3_0@@YAXPEAX@Z 0000000180005070 f   itt_notify.obj
 0001:000040c0       ?__itt_model_site_begin_init_3_0@@YAXPEAPEAX0PEBD@Z 00000001800050c0 f   itt_notify.obj
 0001:00004130       ?__itt_model_site_end_init_3_0@@YAXPEAPEAX0@Z 0000000180005130 f   itt_notify.obj
 0001:00004190       ?__itt_model_task_begin_init_3_0@@YAXPEAPEAX0PEBD@Z 0000000180005190 f   itt_notify.obj
 0001:00004200       ?__itt_model_task_end_init_3_0@@YAXPEAPEAX0@Z 0000000180005200 f   itt_notify.obj
 0001:00004260       ?__itt_model_lock_acquire_init_3_0@@YAXPEAX@Z 0000000180005260 f   itt_notify.obj
 0001:000042b0       ?__itt_model_lock_release_init_3_0@@YAXPEAX@Z 00000001800052b0 f   itt_notify.obj
 0001:00004300       ?__itt_model_record_allocation_init_3_0@@YAXPEAX_K@Z 0000000180005300 f   itt_notify.obj
 0001:00004360       ?__itt_model_record_deallocation_init_3_0@@YAXPEAX@Z 0000000180005360 f   itt_notify.obj
 0001:000043b0       ?__itt_model_induction_uses_init_3_0@@YAXPEAX_K@Z 00000001800053b0 f   itt_notify.obj
 0001:00004410       ?__itt_model_reduction_uses_init_3_0@@YAXPEAX_K@Z 0000000180005410 f   itt_notify.obj
 0001:00004470       ?__itt_model_observe_uses_init_3_0@@YAXPEAX_K@Z 0000000180005470 f   itt_notify.obj
 0001:000044d0       ?__itt_model_clear_uses_init_3_0@@YAXPEAX@Z 00000001800054d0 f   itt_notify.obj
 0001:00004520       ?__itt_model_site_beginW_init_3_0@@YAXPEB_W@Z 0000000180005520 f   itt_notify.obj
 0001:00004570       ?__itt_model_task_beginW_init_3_0@@YAXPEB_W@Z 0000000180005570 f   itt_notify.obj
 0001:000045c0       ?__itt_model_iteration_taskW_init_3_0@@YAXPEB_W@Z 00000001800055c0 f   itt_notify.obj
 0001:00004610       ?__itt_model_site_beginA_init_3_0@@YAXPEBD@Z 0000000180005610 f   itt_notify.obj
 0001:00004660       ?__itt_model_site_beginAL_init_3_0@@YAXPEBD_K@Z 0000000180005660 f   itt_notify.obj
 0001:000046c0       ?__itt_model_task_beginA_init_3_0@@YAXPEBD@Z 00000001800056c0 f   itt_notify.obj
 0001:00004710       ?__itt_model_task_beginAL_init_3_0@@YAXPEBD_K@Z 0000000180005710 f   itt_notify.obj
 0001:00004770       ?__itt_model_iteration_taskA_init_3_0@@YAXPEBD@Z 0000000180005770 f   itt_notify.obj
 0001:000047c0       ?__itt_model_iteration_taskAL_init_3_0@@YAXPEBD_K@Z 00000001800057c0 f   itt_notify.obj
 0001:00004820       ?__itt_model_site_end_2_init_3_0@@YAXXZ 0000000180005820 f   itt_notify.obj
 0001:00004870       ?__itt_model_task_end_2_init_3_0@@YAXXZ 0000000180005870 f   itt_notify.obj
 0001:000048c0       ?__itt_model_lock_acquire_2_init_3_0@@YAXPEAX@Z 00000001800058c0 f   itt_notify.obj
 0001:00004910       ?__itt_model_lock_release_2_init_3_0@@YAXPEAX@Z 0000000180005910 f   itt_notify.obj
 0001:00004960       ?__itt_model_aggregate_task_init_3_0@@YAX_K@Z 0000000180005960 f   itt_notify.obj
 0001:000049b0       ?__itt_model_disable_push_init_3_0@@YAXW4__itt_model_disable@@@Z 00000001800059b0 f   itt_notify.obj
 0001:00004a00       ?__itt_model_disable_pop_init_3_0@@YAXXZ 0000000180005a00 f   itt_notify.obj
 0001:00004a50       ?__itt_heap_function_createA_init_3_0@@YAPEAXPEBD0@Z 0000000180005a50 f   itt_notify.obj
 0001:00004ac0       ?__itt_heap_function_createW_init_3_0@@YAPEAXPEB_W0@Z 0000000180005ac0 f   itt_notify.obj
 0001:00004b30       ?__itt_heap_allocate_begin_init_3_0@@YAXPEAX_KH@Z 0000000180005b30 f   itt_notify.obj
 0001:00004ba0       ?__itt_heap_allocate_end_init_3_0@@YAXPEAXPEAPEAX_KH@Z 0000000180005ba0 f   itt_notify.obj
 0001:00004c20       ?__itt_heap_free_begin_init_3_0@@YAXPEAX0@Z 0000000180005c20 f   itt_notify.obj
 0001:00004c80       ?__itt_heap_free_end_init_3_0@@YAXPEAX0@Z 0000000180005c80 f   itt_notify.obj
 0001:00004ce0       ?__itt_heap_reallocate_begin_init_3_0@@YAXPEAX0_KH@Z 0000000180005ce0 f   itt_notify.obj
 0001:00004d60       ?__itt_heap_reallocate_end_init_3_0@@YAXPEAX0PEAPEAX_KH@Z 0000000180005d60 f   itt_notify.obj
 0001:00004de0       ?__itt_heap_internal_access_begin_init_3_0@@YAXXZ 0000000180005de0 f   itt_notify.obj
 0001:00004e30       ?__itt_heap_internal_access_end_init_3_0@@YAXXZ 0000000180005e30 f   itt_notify.obj
 0001:00004e80       ?__itt_heap_record_memory_growth_begin_init_3_0@@YAXXZ 0000000180005e80 f   itt_notify.obj
 0001:00004ed0       ?__itt_heap_record_memory_growth_end_init_3_0@@YAXXZ 0000000180005ed0 f   itt_notify.obj
 0001:00004f20       ?__itt_heap_reset_detection_init_3_0@@YAXI@Z 0000000180005f20 f   itt_notify.obj
 0001:00004f70       ?__itt_heap_record_init_3_0@@YAXI@Z 0000000180005f70 f   itt_notify.obj
 0001:00004fc0       ?__itt_id_create_init_3_0@@YAXPEBU___itt_domain@@U___itt_id@@@Z 0000000180005fc0 f   itt_notify.obj
 0001:00005030       ?__itt_id_destroy_init_3_0@@YAXPEBU___itt_domain@@U___itt_id@@@Z 0000000180006030 f   itt_notify.obj
 0001:000050a0       ?__itt_get_timestamp_init_3_0@@YA_KXZ 00000001800060a0 f   itt_notify.obj
 0001:000050f0       ?__itt_region_begin_init_3_0@@YAXPEBU___itt_domain@@U___itt_id@@1PEAU___itt_string_handle@@@Z 00000001800060f0 f   itt_notify.obj
 0001:000051a0       ?__itt_region_end_init_3_0@@YAXPEBU___itt_domain@@U___itt_id@@@Z 00000001800061a0 f   itt_notify.obj
 0001:00005210       ?__itt_frame_begin_v3_init_3_0@@YAXPEBU___itt_domain@@PEAU___itt_id@@@Z 0000000180006210 f   itt_notify.obj
 0001:00005270       ?__itt_frame_end_v3_init_3_0@@YAXPEBU___itt_domain@@PEAU___itt_id@@@Z 0000000180006270 f   itt_notify.obj
 0001:000052d0       ?__itt_frame_submit_v3_init_3_0@@YAXPEBU___itt_domain@@PEAU___itt_id@@_K2@Z 00000001800062d0 f   itt_notify.obj
 0001:00005350       ?__itt_task_group_init_3_0@@YAXPEBU___itt_domain@@U___itt_id@@1PEAU___itt_string_handle@@@Z 0000000180006350 f   itt_notify.obj
 0001:00005400       ?__itt_task_begin_init_3_0@@YAXPEBU___itt_domain@@U___itt_id@@1PEAU___itt_string_handle@@@Z 0000000180006400 f   itt_notify.obj
 0001:000054b0       ?__itt_task_begin_fn_init_3_0@@YAXPEBU___itt_domain@@U___itt_id@@1PEAX@Z 00000001800064b0 f   itt_notify.obj
 0001:00005560       ?__itt_task_end_init_3_0@@YAXPEBU___itt_domain@@@Z 0000000180006560 f   itt_notify.obj
 0001:000055b0       ?__itt_counter_inc_v3_init_3_0@@YAXPEBU___itt_domain@@PEAU___itt_string_handle@@@Z 00000001800065b0 f   itt_notify.obj
 0001:00005610       ?__itt_counter_inc_delta_v3_init_3_0@@YAXPEBU___itt_domain@@PEAU___itt_string_handle@@_K@Z 0000000180006610 f   itt_notify.obj
 0001:00005680       ?__itt_counter_dec_v3_init_3_0@@YAXPEBU___itt_domain@@PEAU___itt_string_handle@@@Z 0000000180006680 f   itt_notify.obj
 0001:000056e0       ?__itt_counter_dec_delta_v3_init_3_0@@YAXPEBU___itt_domain@@PEAU___itt_string_handle@@_K@Z 00000001800066e0 f   itt_notify.obj
 0001:00005750       ?__itt_marker_init_3_0@@YAXPEBU___itt_domain@@U___itt_id@@PEAU___itt_string_handle@@W4__itt_scope@@@Z 0000000180006750 f   itt_notify.obj
 0001:000057e0       ?__itt_metadata_add_init_3_0@@YAXPEBU___itt_domain@@U___itt_id@@PEAU___itt_string_handle@@W4__itt_metadata_type@@_KPEAX@Z 00000001800067e0 f   itt_notify.obj
 0001:00005890       ?__itt_metadata_str_addA_init_3_0@@YAXPEBU___itt_domain@@U___itt_id@@PEAU___itt_string_handle@@PEBD_K@Z 0000000180006890 f   itt_notify.obj
 0001:00005930       ?__itt_metadata_str_addW_init_3_0@@YAXPEBU___itt_domain@@U___itt_id@@PEAU___itt_string_handle@@PEB_W_K@Z 0000000180006930 f   itt_notify.obj
 0001:000059d0       ?__itt_relation_add_to_current_init_3_0@@YAXPEBU___itt_domain@@W4__itt_relation@@U___itt_id@@@Z 00000001800069d0 f   itt_notify.obj
 0001:00005a50       ?__itt_relation_add_init_3_0@@YAXPEBU___itt_domain@@U___itt_id@@W4__itt_relation@@1@Z 0000000180006a50 f   itt_notify.obj
 0001:00005b00       ?__itt_event_createA_init_3_0@@YAHPEBDH@Z 0000000180006b00 f   itt_notify.obj
 0001:00005b60       ?__itt_event_createW_init_3_0@@YAHPEB_WH@Z 0000000180006b60 f   itt_notify.obj
 0001:00005bc0       ?__itt_event_start_init_3_0@@YAHH@Z 0000000180006bc0 f   itt_notify.obj
 0001:00005c10       ?__itt_event_end_init_3_0@@YAHH@Z 0000000180006c10 f   itt_notify.obj
 0001:00005c60       ?__itt_sync_set_nameA_init_3_0@@YAXPEAXPEBD1H@Z 0000000180006c60 f   itt_notify.obj
 0001:00005ce0       ?__itt_sync_set_nameW_init_3_0@@YAXPEAXPEB_W1H@Z 0000000180006ce0 f   itt_notify.obj
 0001:00005d60       ?__itt_notify_sync_nameA_init_3_0@@YAHPEAXPEBDH1HH@Z 0000000180006d60 f   itt_notify.obj
 0001:00005df0       ?__itt_notify_sync_nameW_init_3_0@@YAHPEAXPEB_WH1HH@Z 0000000180006df0 f   itt_notify.obj
 0001:00005e80       ?__itt_notify_sync_prepare_init_3_0@@YAXPEAX@Z 0000000180006e80 f   itt_notify.obj
 0001:00005ed0       ?__itt_notify_sync_cancel_init_3_0@@YAXPEAX@Z 0000000180006ed0 f   itt_notify.obj
 0001:00005f20       ?__itt_notify_sync_acquired_init_3_0@@YAXPEAX@Z 0000000180006f20 f   itt_notify.obj
 0001:00005f70       ?__itt_notify_sync_releasing_init_3_0@@YAXPEAX@Z 0000000180006f70 f   itt_notify.obj
 0001:00005fc0       ?__itt_memory_read_init_3_0@@YAXPEAX_K@Z 0000000180006fc0 f   itt_notify.obj
 0001:00006020       ?__itt_memory_write_init_3_0@@YAXPEAX_K@Z 0000000180007020 f   itt_notify.obj
 0001:00006080       ?__itt_memory_update_init_3_0@@YAXPEAX_K@Z 0000000180007080 f   itt_notify.obj
 0001:000060e0       ?__itt_state_get_init_3_0@@YAHXZ 00000001800070e0 f   itt_notify.obj
 0001:00006130       ?__itt_state_set_init_3_0@@YAHH@Z 0000000180007130 f   itt_notify.obj
 0001:00006180       ?__itt_obj_mode_set_init_3_0@@YA?AW4__itt_obj_state@@W4__itt_obj_prop@@W41@@Z 0000000180007180 f   itt_notify.obj
 0001:000061e0       ?__itt_thr_mode_set_init_3_0@@YA?AW4__itt_thr_state@@W4__itt_thr_prop@@W41@@Z 00000001800071e0 f   itt_notify.obj
 0001:00006240       ?__itt_frame_createA_init_3_0@@YAPEAU__itt_frame_t@@PEBD@Z 0000000180007240 f   itt_notify.obj
 0001:00006290       ?__itt_frame_createW_init_3_0@@YAPEAU__itt_frame_t@@PEB_W@Z 0000000180007290 f   itt_notify.obj
 0001:000062e0       ?__itt_pt_region_createA_init_3_0@@YAEPEBD@Z 00000001800072e0 f   itt_notify.obj
 0001:00006330       ?__itt_pt_region_createW_init_3_0@@YAEPEB_W@Z 0000000180007330 f   itt_notify.obj
 0001:00006380       ?__itt_frame_begin_init_3_0@@YAXPEAU__itt_frame_t@@@Z 0000000180007380 f   itt_notify.obj
 0001:000063d0       ?__itt_frame_end_init_3_0@@YAXPEAU__itt_frame_t@@@Z 00000001800073d0 f   itt_notify.obj
 0001:00006420       ?__itt_counter_destroy_init_3_0@@YAXPEAU___itt_counter@@@Z 0000000180007420 f   itt_notify.obj
 0001:00006470       ?__itt_counter_inc_init_3_0@@YAXPEAU___itt_counter@@@Z 0000000180007470 f   itt_notify.obj
 0001:000064c0       ?__itt_counter_inc_delta_init_3_0@@YAXPEAU___itt_counter@@_K@Z 00000001800074c0 f   itt_notify.obj
 0001:00006520       ?__itt_counter_dec_init_3_0@@YAXPEAU___itt_counter@@@Z 0000000180007520 f   itt_notify.obj
 0001:00006570       ?__itt_counter_dec_delta_init_3_0@@YAXPEAU___itt_counter@@_K@Z 0000000180007570 f   itt_notify.obj
 0001:000065d0       ?__itt_counter_set_value_init_3_0@@YAXPEAU___itt_counter@@PEAX@Z 00000001800075d0 f   itt_notify.obj
 0001:00006630       ?__itt_counter_set_value_ex_init_3_0@@YAXPEAU___itt_counter@@PEAU___itt_clock_domain@@_KPEAX@Z 0000000180007630 f   itt_notify.obj
 0001:000066b0       ?__itt_mark_createA_init_3_0@@YAHPEBD@Z 00000001800076b0 f   itt_notify.obj
 0001:00006700       ?__itt_mark_createW_init_3_0@@YAHPEB_W@Z 0000000180007700 f   itt_notify.obj
 0001:00006750       ?__itt_markA_init_3_0@@YAHHPEBD@Z 0000000180007750 f   itt_notify.obj
 0001:000067b0       ?__itt_markW_init_3_0@@YAHHPEB_W@Z 00000001800077b0 f   itt_notify.obj
 0001:00006810       ?__itt_mark_off_init_3_0@@YAHH@Z 0000000180007810 f   itt_notify.obj
 0001:00006860       ?__itt_mark_globalA_init_3_0@@YAHHPEBD@Z 0000000180007860 f   itt_notify.obj
 0001:000068c0       ?__itt_mark_globalW_init_3_0@@YAHHPEB_W@Z 00000001800078c0 f   itt_notify.obj
 0001:00006920       ?__itt_mark_global_off_init_3_0@@YAHH@Z 0000000180007920 f   itt_notify.obj
 0001:00006970       ?__itt_stack_caller_create_init_3_0@@YAPEAU___itt_caller@@XZ 0000000180007970 f   itt_notify.obj
 0001:000069c0       ?__itt_stack_caller_destroy_init_3_0@@YAXPEAU___itt_caller@@@Z 00000001800079c0 f   itt_notify.obj
 0001:00006a10       ?__itt_stack_callee_enter_init_3_0@@YAXPEAU___itt_caller@@@Z 0000000180007a10 f   itt_notify.obj
 0001:00006a60       ?__itt_stack_callee_leave_init_3_0@@YAXPEAU___itt_caller@@@Z 0000000180007a60 f   itt_notify.obj
 0001:00006ab0       ?__itt_clock_domain_create_init_3_0@@YAPEAU___itt_clock_domain@@P6AXPEAU___itt_clock_info@@PEAX@Z1@Z 0000000180007ab0 f   itt_notify.obj
 0001:00006b20       ?__itt_clock_domain_reset_init_3_0@@YAXXZ 0000000180007b20 f   itt_notify.obj
 0001:00006b70       ?__itt_id_create_ex_init_3_0@@YAXPEBU___itt_domain@@PEAU___itt_clock_domain@@_KU___itt_id@@@Z 0000000180007b70 f   itt_notify.obj
 0001:00006c00       ?__itt_id_destroy_ex_init_3_0@@YAXPEBU___itt_domain@@PEAU___itt_clock_domain@@_KU___itt_id@@@Z 0000000180007c00 f   itt_notify.obj
 0001:00006c90       ?__itt_task_begin_ex_init_3_0@@YAXPEBU___itt_domain@@PEAU___itt_clock_domain@@_KU___itt_id@@3PEAU___itt_string_handle@@@Z 0000000180007c90 f   itt_notify.obj
 0001:00006d50       ?__itt_task_begin_fn_ex_init_3_0@@YAXPEBU___itt_domain@@PEAU___itt_clock_domain@@_KU___itt_id@@3PEAX@Z 0000000180007d50 f   itt_notify.obj
 0001:00006e10       ?__itt_task_end_ex_init_3_0@@YAXPEBU___itt_domain@@PEAU___itt_clock_domain@@_K@Z 0000000180007e10 f   itt_notify.obj
 0001:00006e80       ?__itt_task_begin_overlapped_init_3_0@@YAXPEBU___itt_domain@@U___itt_id@@1PEAU___itt_string_handle@@@Z 0000000180007e80 f   itt_notify.obj
 0001:00006f30       ?__itt_task_begin_overlapped_ex_init_3_0@@YAXPEBU___itt_domain@@PEAU___itt_clock_domain@@_KU___itt_id@@3PEAU___itt_string_handle@@@Z 0000000180007f30 f   itt_notify.obj
 0001:00006ff0       ?__itt_task_end_overlapped_init_3_0@@YAXPEBU___itt_domain@@U___itt_id@@@Z 0000000180007ff0 f   itt_notify.obj
 0001:00007060       ?__itt_task_end_overlapped_ex_init_3_0@@YAXPEBU___itt_domain@@PEAU___itt_clock_domain@@_KU___itt_id@@@Z 0000000180008060 f   itt_notify.obj
 0001:000070f0       ?__itt_marker_ex_init_3_0@@YAXPEBU___itt_domain@@PEAU___itt_clock_domain@@_KU___itt_id@@PEAU___itt_string_handle@@W4__itt_scope@@@Z 00000001800080f0 f   itt_notify.obj
 0001:000071a0       ?__itt_metadata_add_with_scope_init_3_0@@YAXPEBU___itt_domain@@W4__itt_scope@@PEAU___itt_string_handle@@W4__itt_metadata_type@@_KPEAX@Z 00000001800081a0 f   itt_notify.obj
 0001:00007230       ?__itt_metadata_str_add_with_scopeA_init_3_0@@YAXPEBU___itt_domain@@W4__itt_scope@@PEAU___itt_string_handle@@PEBD_K@Z 0000000180008230 f   itt_notify.obj
 0001:000072b0       ?__itt_metadata_str_add_with_scopeW_init_3_0@@YAXPEBU___itt_domain@@W4__itt_scope@@PEAU___itt_string_handle@@PEB_W_K@Z 00000001800082b0 f   itt_notify.obj
 0001:00007330       ?__itt_relation_add_to_current_ex_init_3_0@@YAXPEBU___itt_domain@@PEAU___itt_clock_domain@@_KW4__itt_relation@@U___itt_id@@@Z 0000000180008330 f   itt_notify.obj
 0001:000073d0       ?__itt_relation_add_ex_init_3_0@@YAXPEBU___itt_domain@@PEAU___itt_clock_domain@@_KU___itt_id@@W4__itt_relation@@3@Z 00000001800083d0 f   itt_notify.obj
 0001:00007490       ?__itt_track_group_create_init_3_0@@YAPEAU___itt_track_group@@PEAU___itt_string_handle@@W4___itt_track_group_type@@@Z 0000000180008490 f   itt_notify.obj
 0001:000074f0       ?__itt_track_create_init_3_0@@YAPEAU___itt_track@@PEAU___itt_track_group@@PEAU___itt_string_handle@@W4___itt_track_type@@@Z 00000001800084f0 f   itt_notify.obj
 0001:00007570       ?__itt_set_track_init_3_0@@YAXPEAU___itt_track@@@Z 0000000180008570 f   itt_notify.obj
 0001:000075c0       ?__itt_api_version_init_3_0@@YAPEBDXZ 00000001800085c0 f   itt_notify.obj
 0001:00007610       ?__itt_av_saveA_init_3_0@@YAHPEAXHPEBHHPEBDH@Z 0000000180008610 f   itt_notify.obj
 0001:000076a0       ?__itt_av_saveW_init_3_0@@YAHPEAXHPEBHHPEB_WH@Z 00000001800086a0 f   itt_notify.obj
 0001:00007730       ?__itt_module_loadA_init_3_0@@YAXPEAX0PEBD@Z 0000000180008730 f   itt_notify.obj
 0001:000077a0       ?__itt_module_loadW_init_3_0@@YAXPEAX0PEB_W@Z 00000001800087a0 f   itt_notify.obj
 0001:00007810       ?__itt_report_error_impl@@YAXHZZ 0000000180008810 f   itt_notify.obj
 0001:00007840       ?__itt_domain_createW_init_3_0@@YAPEAU___itt_domain@@PEB_W@Z 0000000180008840 f   itt_notify.obj
 0001:000079b0       ?__itt_domain_createA_init_3_0@@YAPEAU___itt_domain@@PEBD@Z 00000001800089b0 f   itt_notify.obj
 0001:00007b10       ?__itt_string_handle_createW_init_3_0@@YAPEAU___itt_string_handle@@PEB_W@Z 0000000180008b10 f   itt_notify.obj
 0001:00007c80       ?__itt_string_handle_createA_init_3_0@@YAPEAU___itt_string_handle@@PEBD@Z 0000000180008c80 f   itt_notify.obj
 0001:00007de0       ?__itt_counter_createW_init_3_0@@YAPEAU___itt_counter@@PEB_W0@Z 0000000180008de0 f   itt_notify.obj
 0001:00007fc0       ?__itt_counter_createA_init_3_0@@YAPEAU___itt_counter@@PEBD0@Z 0000000180008fc0 f   itt_notify.obj
 0001:00008180       ?__itt_counter_create_typedW_init_3_0@@YAPEAU___itt_counter@@PEB_W0W4__itt_metadata_type@@@Z 0000000180009180 f   itt_notify.obj
 0001:00008360       ?__itt_counter_create_typedA_init_3_0@@YAPEAU___itt_counter@@PEBD0W4__itt_metadata_type@@@Z 0000000180009360 f   itt_notify.obj
 0001:00008520       ?__itt_pause_init_3_0@@YAXXZ 0000000180009520 f   itt_notify.obj
 0001:00008570       ?__itt_resume_init_3_0@@YAXXZ 0000000180009570 f   itt_notify.obj
 0001:000085c0       ?__itt_thread_set_nameW_init_3_0@@YAXPEB_W@Z 00000001800095c0 f   itt_notify.obj
 0001:00008610       ?__itt_thr_name_setW_init_3_0@@YAHPEB_WH@Z 0000000180009610 f   itt_notify.obj
 0001:00008660       ?__itt_thread_set_nameA_init_3_0@@YAXPEBD@Z 0000000180009660 f   itt_notify.obj
 0001:000086b0       ?__itt_thr_name_setA_init_3_0@@YAHPEBDH@Z 00000001800096b0 f   itt_notify.obj
 0001:00008700       ?__itt_thr_ignore_init_3_0@@YAXXZ 0000000180009700 f   itt_notify.obj
 0001:00008700       ?__itt_thread_ignore_init_3_0@@YAXXZ 0000000180009700 f   itt_notify.obj
 0001:00008750       ?__itt_get_env_var@@YAPEBDPEBD@Z 0000000180009750 f   itt_notify.obj
 0001:00008810       ?__itt_get_groups@@YA?AW4___itt_group_id@@XZ 0000000180009810 f   itt_notify.obj
 0001:00009220       ?DummyMalloc@internal@tbb@@YAPEAX_K@Z 000000018000a220 f   cache_aligned_allocator.obj
 0001:00009240       ?DummyFree@internal@tbb@@YAXPEAX@Z 000000018000a240 f   cache_aligned_allocator.obj
 0001:00009260       ?dummy_padded_allocate@internal@tbb@@YAPEAX_K0@Z 000000018000a260 f   cache_aligned_allocator.obj
 0001:00009290       ?dummy_padded_free@internal@tbb@@YAXPEAX@Z 000000018000a290 f   cache_aligned_allocator.obj
 0001:00009330       ?padded_allocate@internal@tbb@@YAPEAX_K0@Z 000000018000a330 f   cache_aligned_allocator.obj
 0001:00009370       ?padded_free@internal@tbb@@YAXPEAX@Z 000000018000a370 f   cache_aligned_allocator.obj
 0001:0000e2c0       ?dummy_allocate_binding_handler@internal@tbb@@YAPEAVbinding_handler@12@H@Z 000000018000f2c0 f i governor.obj
 0001:0000f3a8       $LN26                      00000001800103a8     tbb_misc.obj
 0001:0000f7e0       ?initialize_hardware_concurrency_info@internal@tbb@@YAXXZ 00000001800107e0 f   tbb_misc_ex.obj
 0001:0001e130       $$000000                   000000018001f130     atomic_support.obj
 0001:0001e180       $$000000                   000000018001f180     intel64_misc.obj
 0001:0001e190       $$000000                   000000018001f190     itsx.obj
 0001:0001e1e0       $$000000                   000000018001f1e0     MSVCRT:amdsecgs.obj
 0001:0001e3fc       capture_current_context    000000018001f3fc f   MSVCRT:gs_report.obj
 0001:0001e46c       capture_previous_context   000000018001f46c f   MSVCRT:gs_report.obj
 0001:0001e538       ?__scrt_initialize_thread_safe_statics@@YAHXZ 000000018001f538 f   MSVCRT:thread_safe_statics.obj
 0001:0001e608       ?__scrt_uninitialize_thread_safe_statics@@YAXXZ 000000018001f608 f   MSVCRT:thread_safe_statics.obj
 0001:0001eca8       ?dllmain_crt_dispatch@@YAHQEAUHINSTANCE__@@KQEAX@Z 000000018001fca8 f   MSVCRT:dll_dllmain.obj
 0001:0001ecf8       ?dllmain_crt_process_attach@@YAHQEAUHINSTANCE__@@QEAX@Z 000000018001fcf8 f   MSVCRT:dll_dllmain.obj
 0001:0001ee10       ?dllmain_crt_process_detach@@YAH_N@Z 000000018001fe10 f   MSVCRT:dll_dllmain.obj
 0001:0001ee94       ?dllmain_dispatch@@YAHQEAUHINSTANCE__@@KQEAX@Z 000000018001fe94 f   MSVCRT:dll_dllmain.obj
 0001:0001f6f0       $$000000                   00000001800206f0     MSVCRT:chkstk.obj
 0001:0001f760       $$000000                   0000000180020760     MSVCRT:guard_dispatch.obj
 0001:0001f780       $$000000                   0000000180020780     MSVCRT:guard_xfg_dispatch.obj
 0001:0001f7a0       ?catch$1@?0??push@micro_queue@internal@tbb@@QEAAXPEBX_KAEAVconcurrent_queue_base_v3@23@W4copy_specifics@423@@Z@4HA 00000001800207a0 f   concurrent_queue.obj
 0001:0001f7ad       __catch$?push@micro_queue@internal@tbb@@QEAAXPEBX_KAEAVconcurrent_queue_base_v3@23@W4copy_specifics@423@@Z$0 00000001800207ad f   concurrent_queue.obj
 0001:0001f7d5       ?catch$2@?0??push@micro_queue@internal@tbb@@QEAAXPEBX_KAEAVconcurrent_queue_base_v3@23@W4copy_specifics@423@@Z@4HA 00000001800207d5 f   concurrent_queue.obj
 0001:0001f7e2       __catch$?push@micro_queue@internal@tbb@@QEAAXPEBX_KAEAVconcurrent_queue_base_v3@23@W4copy_specifics@423@@Z$2 00000001800207e2 f   concurrent_queue.obj
 0001:0001f810       ?dtor$0@?0??pop@micro_queue@internal@tbb@@QEAA_NPEAX_KAEAVconcurrent_queue_base_v3@23@@Z@4HA 0000000180020810 f   concurrent_queue.obj
 0001:0001f820       ?catch$0@?0??assign@micro_queue@internal@tbb@@QEAAAEAU123@AEBU123@AEAVconcurrent_queue_base_v3@23@W4copy_specifics@423@@Z@4HA 0000000180020820 f   concurrent_queue.obj
 0001:0001f82d       __catch$?assign@micro_queue@internal@tbb@@QEAAAEAU123@AEBU123@AEAVconcurrent_queue_base_v3@23@W4copy_specifics@423@@Z$0 000000018002082d f   concurrent_queue.obj
 0001:0001f850       ?dtor$0@?0??internal_insert_item@concurrent_queue_base_v3@internal@tbb@@IEAAXPEBXW4copy_specifics@123@@Z@4HA 0000000180020850 f   concurrent_queue.obj
 0001:0001f85c       ?catch$1@?0??internal_insert_item@concurrent_queue_base_v3@internal@tbb@@IEAAXPEBXW4copy_specifics@123@@Z@4HA 000000018002085c f   concurrent_queue.obj
 0001:0001f869       __catch$?internal_insert_item@concurrent_queue_base_v3@internal@tbb@@IEAAXPEBXW4copy_specifics@123@@Z$0 0000000180020869 f   concurrent_queue.obj
 0001:0001f88c       ?catch$2@?0??internal_insert_item@concurrent_queue_base_v3@internal@tbb@@IEAAXPEBXW4copy_specifics@123@@Z@4HA 000000018002088c f   concurrent_queue.obj
 0001:0001f899       __catch$?internal_insert_item@concurrent_queue_base_v3@internal@tbb@@IEAAXPEBXW4copy_specifics@123@@Z$1 0000000180020899 f   concurrent_queue.obj
 0001:0001f8b0       ?dtor$0@?0??internal_pop@concurrent_queue_base_v3@internal@tbb@@IEAAXPEAX@Z@4HA 00000001800208b0 f   concurrent_queue.obj
 0001:0001f8bc       ?catch$1@?0??internal_pop@concurrent_queue_base_v3@internal@tbb@@IEAAXPEAX@Z@4HA 00000001800208bc f   concurrent_queue.obj
 0001:0001f8c9       __catch$?internal_pop@concurrent_queue_base_v3@internal@tbb@@IEAAXPEAX@Z$0 00000001800208c9 f   concurrent_queue.obj
 0001:0001f8dc       ?catch$2@?0??internal_pop@concurrent_queue_base_v3@internal@tbb@@IEAAXPEAX@Z@4HA 00000001800208dc f   concurrent_queue.obj
 0001:0001f8e9       __catch$?internal_pop@concurrent_queue_base_v3@internal@tbb@@IEAAXPEAX@Z$1 00000001800208e9 f   concurrent_queue.obj
 0001:0001f900       ?dtor$0@?0??enable_segment@helper@concurrent_vector_base_v3@internal@tbb@@SA_KAEAV234@_K1_N@Z@4HA 0000000180020900 f   concurrent_vector.obj
 0001:0001f90c       ?dtor$1@?0??enable_segment@helper@concurrent_vector_base_v3@internal@tbb@@SA_KAEAV234@_K1_N@Z@4HA 000000018002090c f   concurrent_vector.obj
 0001:0001f920       ?dtor$0@?0??internal_clear@concurrent_vector_base_v3@internal@tbb@@IEAA_KP6AXPEAX_K@Z@Z@4HA 0000000180020920 f   concurrent_vector.obj
 0001:0001f920       ?dtor$0@?0??internal_grow@concurrent_vector_base_v3@internal@tbb@@IEAAX_K00P6AXPEAXPEBX0@Z2@Z@4HA 0000000180020920 f   concurrent_vector.obj
 0001:0001f930       ?dtor$0@?0??internal_resize@concurrent_vector_base_v3@internal@tbb@@IEAAX_K00PEBXP6AXPEAX0@ZP6AX210@Z@Z@4HA 0000000180020930 f   concurrent_vector.obj
 0001:0001f93c       ?dtor$1@?0??internal_resize@concurrent_vector_base_v3@internal@tbb@@IEAAX_K00PEBXP6AXPEAX0@ZP6AX210@Z@Z@4HA 000000018002093c f   concurrent_vector.obj
 0001:0001f950       ?catch$2@?0??internal_compact@concurrent_vector_base_v3@internal@tbb@@IEAAPEAX_KPEAXP6AX10@ZP6AX1PEBX0@Z@Z@4HA 0000000180020950 f   concurrent_vector.obj
 0001:0001f95d       __catch$?internal_compact@concurrent_vector_base_v3@internal@tbb@@IEAAPEAX_KPEAXP6AX10@ZP6AX1PEBX0@Z@Z$0 000000018002095d f   concurrent_vector.obj
 0001:0001f9cc       ?dtor$0@?0??internal_compact@concurrent_vector_base_v3@internal@tbb@@IEAAPEAX_KPEAXP6AX10@ZP6AX1PEBX0@Z@Z@4HA 00000001800209cc f   concurrent_vector.obj
 0001:0001f9e0       ?dtor$0@?0??push@?$task_stream@$02@internal@tbb@@QEAAXPEAVtask@3@HAEAVFastRandom@23@@Z@4HA 00000001800209e0 f   arena.obj
 0001:0001f9e0       ?dtor$0@?0??global_market@market@internal@tbb@@CAAEAV123@_NI_K@Z@4HA 00000001800209e0 f   market.obj
 0001:0001f9e0       ?dtor$0@?0??put_token@input_buffer@internal@tbb@@QEAA_NAEAUtask_info@23@_N@Z@4HA 00000001800209e0 f   pipeline.obj
 0001:0001f9e0       ?dtor$0@?0??return_item@input_buffer@internal@tbb@@QEAA_NAEAUtask_info@23@_N@Z@4HA 00000001800209e0 f   pipeline.obj
 0001:0001f9e0       ?dtor$0@?0??cleanup_master@generic_scheduler@internal@tbb@@QEAA_N_N@Z@4HA 00000001800209e0 f   scheduler.obj
 0001:0001f9e0       ?dtor$0@?0??create_master@generic_scheduler@internal@tbb@@SAPEAV123@PEAVarena@23@@Z@4HA 00000001800209e0 f   scheduler.obj
 0001:0001f9f0       ?dtor$0@?0??internal_process_item@thread_bound_filter@tbb@@AEAA?AW4result_type@12@_N@Z@4HA 00000001800209f0 f   pipeline.obj
 0001:0001f9f0       ?dtor$2@?0??execute@pipeline_root_task@internal@tbb@@EEAAPEAVtask@3@XZ@4HA 00000001800209f0 f   pipeline.obj
 0001:0001f9f0       ?dtor$0@?0??internal_create@global_control@interface9@tbb@@AEAAXXZ@4HA 00000001800209f0 f   tbb_main.obj
 0001:0001f9f0       ?dtor$0@?0??internal_destroy@global_control@interface9@tbb@@AEAAXXZ@4HA 00000001800209f0 f   tbb_main.obj
 0001:0001fa00       ?dtor$0@?0??add_filter@pipeline@tbb@@QEAAXAEAVfilter@2@@Z@4HA 0000000180020a00 f   pipeline.obj
 0001:0001fa1d       ?dtor$1@?0??add_filter@pipeline@tbb@@QEAAXAEAVfilter@2@@Z@4HA 0000000180020a1d f   pipeline.obj
 0001:0001fa3a       ?dtor$2@?0??add_filter@pipeline@tbb@@QEAAXAEAVfilter@2@@Z@4HA 0000000180020a3a f   pipeline.obj
 0001:0001fa57       ?dtor$3@?0??add_filter@pipeline@tbb@@QEAAXAEAVfilter@2@@Z@4HA 0000000180020a57 f   pipeline.obj
 0001:0001fa80       ?dtor$0@?0??run@pipeline@tbb@@QEAAX_KAEAVtask_group_context@2@@Z@4HA 0000000180020a80 f   pipeline.obj
 0001:0001fa90       ?dtor$0@?0??run@pipeline@tbb@@QEAAX_K@Z@4HA 0000000180020a90 f   pipeline.obj
 0001:0001faa0       ?dtor$0@?0???$note_done@Vstage_task@internal@tbb@@@input_buffer@internal@tbb@@QEAAXKAEAVstage_task@12@@Z@4HA 0000000180020aa0 f   pipeline.obj
 0001:0001fab0       ?dtor$0@?0??lock_read@reader_writer_lock@interface5@tbb@@QEAAXXZ@4HA 0000000180020ab0 f   reader_writer_lock.obj
 0001:0001fac0       ?dtor$2@?0???0private_server@rml@internal@tbb@@QEAA@AEAVtbb_client@123@@Z@4HA 0000000180020ac0 f   private_server.obj
 0001:0001fad0       ?catch$14@?0??register_pending_exception@task_group_context@tbb@@QEAAXXZ@4HA 0000000180020ad0 f   task_group_context.obj
 0001:0001fadf       __catch$?register_pending_exception@task_group_context@tbb@@QEAAXXZ$0 0000000180020adf f   task_group_context.obj
 0001:0001fba2       ?dtor$0@?0??register_pending_exception@task_group_context@tbb@@QEAAXXZ@4HA 0000000180020ba2 f   task_group_context.obj
 0001:0001fbae       ?dtor$3@?0??register_pending_exception@task_group_context@tbb@@QEAAXXZ@4HA 0000000180020bae f   task_group_context.obj
 0001:0001fbba       ?catch$15@?0??register_pending_exception@task_group_context@tbb@@QEAAXXZ@4HA 0000000180020bba f   task_group_context.obj
 0001:0001fbcc       __catch$?register_pending_exception@task_group_context@tbb@@QEAAXXZ$1 0000000180020bcc f   task_group_context.obj
 0001:0001fcdf       ?dtor$6@?0??register_pending_exception@task_group_context@tbb@@QEAAXXZ@4HA 0000000180020cdf f   task_group_context.obj
 0001:0001fceb       ?catch$16@?0??register_pending_exception@task_group_context@tbb@@QEAAXXZ@4HA 0000000180020ceb f   task_group_context.obj
 0001:0001fcfa       __catch$?register_pending_exception@task_group_context@tbb@@QEAAXXZ$2 0000000180020cfa f   task_group_context.obj
 0001:0001fde2       ?dtor$10@?0??register_pending_exception@task_group_context@tbb@@QEAAXXZ@4HA 0000000180020de2 f   task_group_context.obj
 0001:0001fdf0       ?dtor$0@?0??initialization_impl@numa_topology@internal@tbb@@YAXXZ@4HA 0000000180020df0 f   governor.obj
 0001:0001fe00       ?dtor$0@?0??rethrow_exception@std@@YAXVexception_ptr@1@@Z@4HA 0000000180020e00 f   arena.obj
 0001:0001fe10       ?dtor$0@?0??notify_entry_observers@observer_list@internal@tbb@@QEAAXAEAPEAVobserver_proxy@23@_N@Z@4HA 0000000180020e10 f   arena.obj
 0001:0001fe10       ?dtor$0@?0??notify_exit_observers@observer_list@internal@tbb@@QEAAXAEAPEAVobserver_proxy@23@_N@Z@4HA 0000000180020e10 f   arena.obj
 0001:0001fe20       ?dtor$0@?0???0arena@internal@tbb@@QEAA@AEAVmarket@12@II@Z@4HA 0000000180020e20 f   arena.obj
 0001:0001fe2c       ?dtor$1@?0???0arena@internal@tbb@@QEAA@AEAVmarket@12@II@Z@4HA 0000000180020e2c f   arena.obj
 0001:0001fe70       ?dtor$1@?0??internal_initialize@task_arena_base@internal@interface7@tbb@@IEAAXXZ@4HA 0000000180020e70 f   arena.obj
 0001:0001fe8d       ?dtor$2@?0??internal_initialize@task_arena_base@internal@interface7@tbb@@IEAAXXZ@4HA 0000000180020e8d f   arena.obj
 0001:0001fea0       ?dtor$0@?0??execute@delegated_task@internal@interface7@tbb@@EEAAPEAVtask@4@XZ@4HA 0000000180020ea0 f   arena.obj
 0001:0001feb0       ?dtor$1@?0??internal_execute@task_arena_base@internal@interface7@tbb@@IEBAXAEAVdelegate_base@234@@Z@4HA 0000000180020eb0 f   arena.obj
 0001:0001febc       ?dtor$2@?0??internal_execute@task_arena_base@internal@interface7@tbb@@IEBAXAEAVdelegate_base@234@@Z@4HA 0000000180020ebc f   arena.obj
 0001:0001fec8       ?dtor$3@?0??internal_execute@task_arena_base@internal@interface7@tbb@@IEBAXAEAVdelegate_base@234@@Z@4HA 0000000180020ec8 f   arena.obj
 0001:0001fed4       ?dtor$5@?0??internal_execute@task_arena_base@internal@interface7@tbb@@IEBAXAEAVdelegate_base@234@@Z@4HA 0000000180020ed4 f   arena.obj
 0001:0001fee0       ?dtor$6@?0??internal_execute@task_arena_base@internal@interface7@tbb@@IEBAXAEAVdelegate_base@234@@Z@4HA 0000000180020ee0 f   arena.obj
 0001:0001feec       ?dtor$7@?0??internal_execute@task_arena_base@internal@interface7@tbb@@IEBAXAEAVdelegate_base@234@@Z@4HA 0000000180020eec f   arena.obj
 0001:0001fef8       ?catch$11@?0??internal_execute@task_arena_base@internal@interface7@tbb@@IEBAXAEAVdelegate_base@234@@Z@4HA 0000000180020ef8 f   arena.obj
 0001:0001ff05       __catch$?internal_execute@task_arena_base@internal@interface7@tbb@@IEBAXAEAVdelegate_base@234@@Z$0 0000000180020f05 f   arena.obj
 0001:0001ff76       ?dtor$8@?0??internal_execute@task_arena_base@internal@interface7@tbb@@IEBAXAEAVdelegate_base@234@@Z@4HA 0000000180020f76 f   arena.obj
 0001:0001ff90       ?dtor$0@?0??internal_wait@task_arena_base@internal@interface7@tbb@@IEBAXXZ@4HA 0000000180020f90 f   arena.obj
 0001:0001ff9c       ?dtor$1@?0??internal_wait@task_arena_base@internal@interface7@tbb@@IEBAXXZ@4HA 0000000180020f9c f   arena.obj
 0001:0001ffb0       ?dtor$0@?0??isolate_within_arena@internal@interface7@tbb@@YAXAEAVdelegate_base@123@_J@Z@4HA 0000000180020fb0 f   arena.obj
 0001:0001ffc0       ?dtor$0@?0???0generic_scheduler@internal@tbb@@IEAA@AEAVmarket@12@_N@Z@4HA 0000000180020fc0 f   scheduler.obj
 0001:0001ffd0       ?dtor$0@?0??local_spawn@generic_scheduler@internal@tbb@@QEAAXPEAVtask@3@AEAPEAV43@@Z@4HA 0000000180020fd0 f   scheduler.obj
 0001:0001ffe0       ?dtor$0@?0??spawn_root_and_wait@generic_scheduler@internal@tbb@@UEAAXAEAVtask@3@AEAPEAV43@@Z@4HA 0000000180020fe0 f   scheduler.obj
 0001:0001fff0       ?dtor$0@?0??winnow_task_pool@generic_scheduler@internal@tbb@@QEAAPEAVtask@3@_J@Z@4HA 0000000180020ff0 f   scheduler.obj
 0001:00020000       ?dtor$0@?0??reload_tasks@generic_scheduler@internal@tbb@@QEAAPEAVtask@3@AEAPEAV43@AEAPEAPEAV43@_J2@Z@4HA 0000000180021000 f   scheduler.obj
 0001:00020010       ?dtor$0@?0??local_wait_for_all@?$custom_scheduler@UDefaultSchedulerTraits@internal@tbb@@@internal@tbb@@EEAAXAEAVtask@3@PEAV43@@Z@4HA 0000000180021010 f   scheduler.obj
 0001:0002001c       ?catch$19@?0??local_wait_for_all@?$custom_scheduler@UDefaultSchedulerTraits@internal@tbb@@@internal@tbb@@EEAAXAEAVtask@3@PEAV43@@Z@4HA 000000018002101c f   scheduler.obj
 0001:0002002b       __catch$?local_wait_for_all@?$custom_scheduler@UDefaultSchedulerTraits@internal@tbb@@@internal@tbb@@EEAAXAEAVtask@3@PEAV43@@Z$2 000000018002102b f   scheduler.obj
 0001:0002010e       ?dtor$3@?0??local_wait_for_all@?$custom_scheduler@UDefaultSchedulerTraits@internal@tbb@@@internal@tbb@@EEAAXAEAVtask@3@PEAV43@@Z@4HA 000000018002110e f   scheduler.obj
 0001:0002011a       ?dtor$6@?0??local_wait_for_all@?$custom_scheduler@UDefaultSchedulerTraits@internal@tbb@@@internal@tbb@@EEAAXAEAVtask@3@PEAV43@@Z@4HA 000000018002111a f   scheduler.obj
 0001:00020126       ?catch$20@?0??local_wait_for_all@?$custom_scheduler@UDefaultSchedulerTraits@internal@tbb@@@internal@tbb@@EEAAXAEAVtask@3@PEAV43@@Z@4HA 0000000180021126 f   scheduler.obj
 0001:00020138       __catch$?local_wait_for_all@?$custom_scheduler@UDefaultSchedulerTraits@internal@tbb@@@internal@tbb@@EEAAXAEAVtask@3@PEAV43@@Z$3 0000000180021138 f   scheduler.obj
 0001:00020266       ?dtor$9@?0??local_wait_for_all@?$custom_scheduler@UDefaultSchedulerTraits@internal@tbb@@@internal@tbb@@EEAAXAEAVtask@3@PEAV43@@Z@4HA 0000000180021266 f   scheduler.obj
 0001:00020272       ?catch$21@?0??local_wait_for_all@?$custom_scheduler@UDefaultSchedulerTraits@internal@tbb@@@internal@tbb@@EEAAXAEAVtask@3@PEAV43@@Z@4HA 0000000180021272 f   scheduler.obj
 0001:00020281       __catch$?local_wait_for_all@?$custom_scheduler@UDefaultSchedulerTraits@internal@tbb@@@internal@tbb@@EEAAXAEAVtask@3@PEAV43@@Z$4 0000000180021281 f   scheduler.obj
 0001:0002038d       ?dtor$13@?0??local_wait_for_all@?$custom_scheduler@UDefaultSchedulerTraits@internal@tbb@@@internal@tbb@@EEAAXAEAVtask@3@PEAV43@@Z@4HA 000000018002138d f   scheduler.obj
 0001:000203a0       ?dtor$0@?0??local_wait_for_all@?$custom_scheduler@UIntelSchedulerTraits@internal@tbb@@@internal@tbb@@EEAAXAEAVtask@3@PEAV43@@Z@4HA 00000001800213a0 f   scheduler.obj
 0001:000203ac       ?catch$19@?0??local_wait_for_all@?$custom_scheduler@UIntelSchedulerTraits@internal@tbb@@@internal@tbb@@EEAAXAEAVtask@3@PEAV43@@Z@4HA 00000001800213ac f   scheduler.obj
 0001:000203bb       __catch$?local_wait_for_all@?$custom_scheduler@UIntelSchedulerTraits@internal@tbb@@@internal@tbb@@EEAAXAEAVtask@3@PEAV43@@Z$2 00000001800213bb f   scheduler.obj
 0001:0002049e       ?dtor$3@?0??local_wait_for_all@?$custom_scheduler@UIntelSchedulerTraits@internal@tbb@@@internal@tbb@@EEAAXAEAVtask@3@PEAV43@@Z@4HA 000000018002149e f   scheduler.obj
 0001:000204aa       ?dtor$6@?0??local_wait_for_all@?$custom_scheduler@UIntelSchedulerTraits@internal@tbb@@@internal@tbb@@EEAAXAEAVtask@3@PEAV43@@Z@4HA 00000001800214aa f   scheduler.obj
 0001:000204b6       ?catch$20@?0??local_wait_for_all@?$custom_scheduler@UIntelSchedulerTraits@internal@tbb@@@internal@tbb@@EEAAXAEAVtask@3@PEAV43@@Z@4HA 00000001800214b6 f   scheduler.obj
 0001:000204c8       __catch$?local_wait_for_all@?$custom_scheduler@UIntelSchedulerTraits@internal@tbb@@@internal@tbb@@EEAAXAEAVtask@3@PEAV43@@Z$3 00000001800214c8 f   scheduler.obj
 0001:000205f6       ?dtor$9@?0??local_wait_for_all@?$custom_scheduler@UIntelSchedulerTraits@internal@tbb@@@internal@tbb@@EEAAXAEAVtask@3@PEAV43@@Z@4HA 00000001800215f6 f   scheduler.obj
 0001:00020602       ?catch$21@?0??local_wait_for_all@?$custom_scheduler@UIntelSchedulerTraits@internal@tbb@@@internal@tbb@@EEAAXAEAVtask@3@PEAV43@@Z@4HA 0000000180021602 f   scheduler.obj
 0001:00020611       __catch$?local_wait_for_all@?$custom_scheduler@UIntelSchedulerTraits@internal@tbb@@@internal@tbb@@EEAAXAEAVtask@3@PEAV43@@Z$4 0000000180021611 f   scheduler.obj
 0001:0002071d       ?dtor$13@?0??local_wait_for_all@?$custom_scheduler@UIntelSchedulerTraits@internal@tbb@@@internal@tbb@@EEAAXAEAVtask@3@PEAV43@@Z@4HA 000000018002171d f   scheduler.obj
 0001:00020730       ?dtor$0@?0??push@micro_queue@internal@tbb@@QEAAXPEBX_KAEAVconcurrent_queue_base@23@@Z@4HA 0000000180021730 f   concurrent_queue_v2.obj
 0001:00020740       ?dtor$0@?0??pop@micro_queue@internal@tbb@@QEAA_NPEAX_KAEAVconcurrent_queue_base@23@@Z@4HA 0000000180021740 f   concurrent_queue_v2.obj
 0001:0002074c       ?fin$0@?0???_M@YAXPEAX_K1P6AX0@Z@Z@4HA 000000018002174c f   MSVCRT:ehvecdtr.obj
 0001:00020778       ?filt$0@?0??__ArrayUnwind@@YAXPEAX_K1P6AX0@Z@Z@4HA 0000000180021778 f   MSVCRT:ehvecdtr.obj
 0001:000207d7       ?fin$0@?0???_L@YAXPEAX_K1P6AX0@Z2@Z@4HA 00000001800217d7 f   MSVCRT:ehvecctr.obj
 0001:00020803       __scrt_is_nonwritable_in_current_image$filt$0 0000000180021803 f   MSVCRT:utility.obj
 0001:0002081b       ?fin$0@?0??dllmain_crt_process_attach@@YAHQEAUHINSTANCE__@@QEAX@Z@4HA 000000018002181b f   MSVCRT:dll_dllmain.obj
 0001:00020832       ?fin$0@?0??dllmain_crt_process_detach@@YAH_N@Z@4HA 0000000180021832 f   MSVCRT:dll_dllmain.obj
 0001:0002084b       ?fin$1@?0??dllmain_crt_process_detach@@YAH_N@Z@4HA 000000018002184b f   MSVCRT:dll_dllmain.obj
 0001:0002085f       ?filt$0@?0??dllmain_dispatch@@YAHQEAUHINSTANCE__@@KQEAX@Z@4HA 000000018002185f f   MSVCRT:dll_dllmain.obj
 0001:000208a0       ??__Fthe_dummy_context@internal@tbb@@YAXXZ 00000001800218a0 f   scheduler.obj
 0002:000003c8       ?static_init_dl_data$initializer$@internal@tbb@@3P6AXXZEA 00000001800223c8     dynamic_link.obj
 0002:000003d0       ?the_dummy_context$initializer$@internal@tbb@@3P6AXXZEA 00000001800223d0     scheduler.obj
 0002:000003e8       ?__scrt_initialize_tss_var@@3P6AHXZEA 00000001800223e8     MSVCRT:thread_safe_statics.obj
 0002:00000440       GS_ExceptionPointers       0000000180022440     MSVCRT:gs_report.obj
 0002:00000520       ?_Fake_alloc@std@@3U_Fake_allocator@1@B 0000000180022520     concurrent_hash_map.obj
 0002:00000521       ?_Fake_alloc@std@@3U_Fake_allocator@1@B 0000000180022521     concurrent_queue.obj
 0002:00000522       ?_Fake_alloc@std@@3U_Fake_allocator@1@B 0000000180022522     concurrent_vector.obj
 0002:00000523       ?_Fake_alloc@std@@3U_Fake_allocator@1@B 0000000180022523     dynamic_link.obj
 0002:00000524       ?_Fake_alloc@std@@3U_Fake_allocator@1@B 0000000180022524     cache_aligned_allocator.obj
 0002:00000525       ?_Fake_alloc@std@@3U_Fake_allocator@1@B 0000000180022525     queuing_mutex.obj
 0002:00000526       ?_Fake_alloc@std@@3U_Fake_allocator@1@B 0000000180022526     reader_writer_lock.obj
 0002:00000527       ?_Fake_alloc@std@@3U_Fake_allocator@1@B 0000000180022527     x86_rtm_rw_mutex.obj
 0002:00000528       ?__itt_fini_ittlib_ptr@@3P6AXXZEA 0000000180022528     itt_notify.obj
 0002:00000530       ?api_version@@3QBDB        0000000180022530     itt_notify.obj
 0002:00000563       ?_Fake_alloc@std@@3U_Fake_allocator@1@B 0000000180022563     spin_mutex.obj
 0002:00000564       ?_Fake_alloc@std@@3U_Fake_allocator@1@B 0000000180022564     critical_section.obj
 0002:00000565       ?_Fake_alloc@std@@3U_Fake_allocator@1@B 0000000180022565     mutex.obj
 0002:00000566       ?_Fake_alloc@std@@3U_Fake_allocator@1@B 0000000180022566     condition_variable.obj
 0002:00000567       ?_Fake_alloc@std@@3U_Fake_allocator@1@B 0000000180022567     tbb_thread.obj
 0002:000005c0       ?dll_path@@3QBDB           00000001800225c0     itt_notify.obj
 0002:000007c0       ?ittnotify_lib_name@@3PEBDEB 00000001800227c0     itt_notify.obj
 0002:000007c8       ?NFS_LineSize@internal@tbb@@3_KA 00000001800227c8     cache_aligned_allocator.obj
 0002:000007d0       ?MallocLinkTable@internal@tbb@@3QBUdynamic_link_descriptor@12@B 00000001800227d0     cache_aligned_allocator.obj
 0002:00000810       ?CondVarLinkTable@internal@tbb@@3QBUdynamic_link_descriptor@12@B 0000000180022810     condition_variable.obj
 0002:00000850       ?_Fake_alloc@std@@3U_Fake_allocator@1@B 0000000180022850     concurrent_monitor.obj
 0002:00000851       ?_Fake_alloc@std@@3U_Fake_allocator@1@B 0000000180022851     private_server.obj
 0002:00000852       ?_Fake_alloc@std@@3U_Fake_allocator@1@B 0000000180022852     tbb_misc.obj
 0002:00000853       ?_Fake_alloc@std@@3U_Fake_allocator@1@B 0000000180022853     tbb_misc_ex.obj
 0002:00000854       ?_Fake_alloc@std@@3U_Fake_allocator@1@B 0000000180022854     task.obj
 0002:00000855       ?_Fake_alloc@std@@3U_Fake_allocator@1@B 0000000180022855     task_group_context.obj
 0002:00000856       ?_Fake_alloc@std@@3U_Fake_allocator@1@B 0000000180022856     governor.obj
 0002:00000857       ?_Fake_alloc@std@@3U_Fake_allocator@1@B 0000000180022857     market.obj
 0002:00000858       ?SyncType_RML@internal@rml@@3PEB_WEB 0000000180022858     private_server.obj
 0002:00000860       ?SyncObj_ThreadMonitor@internal@rml@@3PEB_WEB 0000000180022860     private_server.obj
 0002:00000868       ?_Fake_alloc@std@@3U_Fake_allocator@1@B 0000000180022868     arena.obj
 0002:00000869       ?_Fake_alloc@std@@3U_Fake_allocator@1@B 0000000180022869     scheduler.obj
 0002:0000086a       ?_Fake_alloc@std@@3U_Fake_allocator@1@B 000000018002286a     observer_proxy.obj
 0002:0000086b       ?_Fake_alloc@std@@3U_Fake_allocator@1@B 000000018002286b     tbb_main.obj
 0002:0000086c       ?_Fake_alloc@std@@3U_Fake_allocator@1@B 000000018002286c     concurrent_vector_v2.obj
 0002:00000870       ?VersionString@internal@tbb@@3QBDB 0000000180022870     tbb_misc.obj
 0002:00000910       ?ProcessorGroupsApiLinkTable@internal@tbb@@3QBUdynamic_link_descriptor@12@B 0000000180022910     tbb_misc_ex.obj
 0002:00000950       ?priority_from_normalized_rep@internal@tbb@@3QBW4priority_t@2@B 0000000180022950     task_group_context.obj
 0002:00000960       ?TbbBindLinkTable@internal@tbb@@3QBUdynamic_link_descriptor@12@B 0000000180022960     governor.obj
 0002:000009b0       ?CilkLinkTable@internal@tbb@@3QBUdynamic_link_descriptor@12@B 00000001800229b0     governor.obj
 0002:000009c0       ?controls@internal@tbb@@3PAPEAVcontrol_storage@12@A 00000001800229c0     tbb_main.obj
 0002:000009d0       ?_pad@internal@tbb@@3QBDB  00000001800229d0     tbb_main.obj
 0002:00000a50       ?itt_null_id@internal@tbb@@3U___itt_id@@B 0000000180022a50     tbb_main.obj
 0002:00000a68       __itt_null                 0000000180022a68     tbb_main.obj
 0002:00005878       $unwind$??$advertise_new_work@$01@arena@internal@tbb@@QEAAXXZ 0000000180027878     arena.obj
 0002:00005878       $unwind$??1?$padded@Uarena_base@internal@tbb@@$0IA@@internal@tbb@@QEAA@XZ 0000000180027878     arena.obj
 0002:00005878       $unwind$??_G?$function_task@Vspawn_functor@graph@interface10@flow@tbb@@@internal@tbb@@UEAAPEAXI@Z 0000000180027878     arena.obj
 0002:00005878       $unwind$??_Gempty_task@tbb@@UEAAPEAXI@Z 0000000180027878     arena.obj
 0002:00005878       $unwind$??_Gwait_task@internal@interface7@tbb@@UEAAPEAXI@Z 0000000180027878     arena.obj
 0002:00005878       $unwind$?internal_attach@task_arena_base@internal@interface7@tbb@@IEAAXXZ 0000000180027878     arena.obj
 0002:00005878       $unwind$?on_scheduler_entry@numa_binding_observer@internal@tbb@@UEAAX_N@Z 0000000180027878     arena.obj
 0002:00005878       $unwind$?on_scheduler_exit@numa_binding_observer@internal@tbb@@UEAAX_N@Z 0000000180027878     arena.obj
 0002:00005878       $unwind$?DummyFree@internal@tbb@@YAXPEAX@Z 0000000180027878     cache_aligned_allocator.obj
 0002:00005878       $unwind$?DummyMalloc@internal@tbb@@YAPEAX_K@Z 0000000180027878     cache_aligned_allocator.obj
 0002:00005878       $unwind$?allocate_via_handler_v3@internal@tbb@@YAPEAX_K@Z 0000000180027878     cache_aligned_allocator.obj
 0002:00005878       $unwind$?dummy_padded_free@internal@tbb@@YAXPEAX@Z 0000000180027878     cache_aligned_allocator.obj
 0002:00005878       $unwind$?padded_allocate@internal@tbb@@YAPEAX_K0@Z 0000000180027878     cache_aligned_allocator.obj
 0002:00005878       $unwind$?init@thread_context@concurrent_monitor@internal@tbb@@AEAAXXZ 0000000180027878     concurrent_monitor.obj
 0002:00005878       $unwind$??0concurrent_queue_iterator_base_v3@internal@tbb@@IEAA@AEBVconcurrent_queue_base_v3@12@@Z 0000000180027878     concurrent_queue.obj
 0002:00005878       $unwind$??0concurrent_queue_iterator_base_v3@internal@tbb@@IEAA@AEBVconcurrent_queue_base_v3@12@_K@Z 0000000180027878     concurrent_queue.obj
 0002:00005878       $unwind$??1thread_context@concurrent_monitor@internal@tbb@@QEAA@XZ 0000000180027878     concurrent_queue.obj
 0002:00005878       $unwind$?internal_abort@concurrent_queue_base_v3@internal@tbb@@IEAAXXZ 0000000180027878     concurrent_queue.obj
 0002:00005878       $unwind$??1concurrent_queue_iterator_base@internal@tbb@@IEAA@XZ 0000000180027878     concurrent_queue_v2.obj
 0002:00005878       $unwind$?init_condvar_using_event@internal@tbb@@YAXPEAUcondition_variable_using_event@1interface5@2@@Z 0000000180027878     condition_variable.obj
 0002:00005878       $unwind$?init_dl_data@internal@tbb@@YAXXZ 0000000180027878     dynamic_link.obj
 0002:00005878       $unwind$?auto_terminate@governor@internal@tbb@@CAXPEAX@Z 0000000180027878     governor.obj
 0002:00005878       $unwind$?default_concurrency@numa_topology@internal@tbb@@YAHH@Z 0000000180027878     governor.obj
 0002:00005878       $unwind$?fill@numa_topology@internal@tbb@@YAXPEAH@Z 0000000180027878     governor.obj
 0002:00005878       $unwind$?__itt_counter_dec_init_3_0@@YAXPEAU___itt_counter@@@Z 0000000180027878     itt_notify.obj
 0002:00005878       $unwind$?__itt_counter_destroy_init_3_0@@YAXPEAU___itt_counter@@@Z 0000000180027878     itt_notify.obj
 0002:00005878       $unwind$?__itt_counter_inc_init_3_0@@YAXPEAU___itt_counter@@@Z 0000000180027878     itt_notify.obj
 0002:00005878       $unwind$?__itt_event_end_init_3_0@@YAHH@Z 0000000180027878     itt_notify.obj
 0002:00005878       $unwind$?__itt_event_start_init_3_0@@YAHH@Z 0000000180027878     itt_notify.obj
 0002:00005878       $unwind$?__itt_frame_begin_init_3_0@@YAXPEAU__itt_frame_t@@@Z 0000000180027878     itt_notify.obj
 0002:00005878       $unwind$?__itt_frame_createA_init_3_0@@YAPEAU__itt_frame_t@@PEBD@Z 0000000180027878     itt_notify.obj
 0002:00005878       $unwind$?__itt_frame_createW_init_3_0@@YAPEAU__itt_frame_t@@PEB_W@Z 0000000180027878     itt_notify.obj
 0002:00005878       $unwind$?__itt_frame_end_init_3_0@@YAXPEAU__itt_frame_t@@@Z 0000000180027878     itt_notify.obj
 0002:00005878       $unwind$?__itt_fsync_acquired_init_3_0@@YAXPEAX@Z 0000000180027878     itt_notify.obj
 0002:00005878       $unwind$?__itt_fsync_cancel_init_3_0@@YAXPEAX@Z 0000000180027878     itt_notify.obj
 0002:00005878       $unwind$?__itt_fsync_prepare_init_3_0@@YAXPEAX@Z 0000000180027878     itt_notify.obj
 0002:00005878       $unwind$?__itt_fsync_releasing_init_3_0@@YAXPEAX@Z 0000000180027878     itt_notify.obj
 0002:00005878       $unwind$?__itt_heap_record_init_3_0@@YAXI@Z 0000000180027878     itt_notify.obj
 0002:00005878       $unwind$?__itt_heap_reset_detection_init_3_0@@YAXI@Z 0000000180027878     itt_notify.obj
 0002:00005878       $unwind$?__itt_mark_createA_init_3_0@@YAHPEBD@Z 0000000180027878     itt_notify.obj
 0002:00005878       $unwind$?__itt_mark_createW_init_3_0@@YAHPEB_W@Z 0000000180027878     itt_notify.obj
 0002:00005878       $unwind$?__itt_mark_global_off_init_3_0@@YAHH@Z 0000000180027878     itt_notify.obj
 0002:00005878       $unwind$?__itt_mark_off_init_3_0@@YAHH@Z 0000000180027878     itt_notify.obj
 0002:00005878       $unwind$?__itt_model_aggregate_task_init_3_0@@YAX_K@Z 0000000180027878     itt_notify.obj
 0002:00005878       $unwind$?__itt_model_clear_uses_init_3_0@@YAXPEAX@Z 0000000180027878     itt_notify.obj
 0002:00005878       $unwind$?__itt_model_disable_push_init_3_0@@YAXW4__itt_model_disable@@@Z 0000000180027878     itt_notify.obj
 0002:00005878       $unwind$?__itt_model_iteration_taskA_init_3_0@@YAXPEBD@Z 0000000180027878     itt_notify.obj
 0002:00005878       $unwind$?__itt_model_iteration_taskW_init_3_0@@YAXPEB_W@Z 0000000180027878     itt_notify.obj
 0002:00005878       $unwind$?__itt_model_lock_acquire_2_init_3_0@@YAXPEAX@Z 0000000180027878     itt_notify.obj
 0002:00005878       $unwind$?__itt_model_lock_acquire_init_3_0@@YAXPEAX@Z 0000000180027878     itt_notify.obj
 0002:00005878       $unwind$?__itt_model_lock_release_2_init_3_0@@YAXPEAX@Z 0000000180027878     itt_notify.obj
 0002:00005878       $unwind$?__itt_model_lock_release_init_3_0@@YAXPEAX@Z 0000000180027878     itt_notify.obj
 0002:00005878       $unwind$?__itt_model_record_deallocation_init_3_0@@YAXPEAX@Z 0000000180027878     itt_notify.obj
 0002:00005878       $unwind$?__itt_model_site_beginA_init_3_0@@YAXPEBD@Z 0000000180027878     itt_notify.obj
 0002:00005878       $unwind$?__itt_model_site_beginW_init_3_0@@YAXPEB_W@Z 0000000180027878     itt_notify.obj
 0002:00005878       $unwind$?__itt_model_task_beginA_init_3_0@@YAXPEBD@Z 0000000180027878     itt_notify.obj
 0002:00005878       $unwind$?__itt_model_task_beginW_init_3_0@@YAXPEB_W@Z 0000000180027878     itt_notify.obj
 0002:00005878       $unwind$?__itt_notify_sync_acquired_init_3_0@@YAXPEAX@Z 0000000180027878     itt_notify.obj
 0002:00005878       $unwind$?__itt_notify_sync_cancel_init_3_0@@YAXPEAX@Z 0000000180027878     itt_notify.obj
 0002:00005878       $unwind$?__itt_notify_sync_prepare_init_3_0@@YAXPEAX@Z 0000000180027878     itt_notify.obj
 0002:00005878       $unwind$?__itt_notify_sync_releasing_init_3_0@@YAXPEAX@Z 0000000180027878     itt_notify.obj
 0002:00005878       $unwind$?__itt_pt_region_createA_init_3_0@@YAEPEBD@Z 0000000180027878     itt_notify.obj
 0002:00005878       $unwind$?__itt_pt_region_createW_init_3_0@@YAEPEB_W@Z 0000000180027878     itt_notify.obj
 0002:00005878       $unwind$?__itt_set_track_init_3_0@@YAXPEAU___itt_track@@@Z 0000000180027878     itt_notify.obj
 0002:00005878       $unwind$?__itt_stack_callee_enter_init_3_0@@YAXPEAU___itt_caller@@@Z 0000000180027878     itt_notify.obj
 0002:00005878       $unwind$?__itt_stack_callee_leave_init_3_0@@YAXPEAU___itt_caller@@@Z 0000000180027878     itt_notify.obj
 0002:00005878       $unwind$?__itt_stack_caller_destroy_init_3_0@@YAXPEAU___itt_caller@@@Z 0000000180027878     itt_notify.obj
 0002:00005878       $unwind$?__itt_state_set_init_3_0@@YAHH@Z 0000000180027878     itt_notify.obj
 0002:00005878       $unwind$?__itt_suppress_push_init_3_0@@YAXI@Z 0000000180027878     itt_notify.obj
 0002:00005878       $unwind$?__itt_sync_acquired_init_3_0@@YAXPEAX@Z 0000000180027878     itt_notify.obj
 0002:00005878       $unwind$?__itt_sync_cancel_init_3_0@@YAXPEAX@Z 0000000180027878     itt_notify.obj
 0002:00005878       $unwind$?__itt_sync_destroy_init_3_0@@YAXPEAX@Z 0000000180027878     itt_notify.obj
 0002:00005878       $unwind$?__itt_sync_prepare_init_3_0@@YAXPEAX@Z 0000000180027878     itt_notify.obj
 0002:00005878       $unwind$?__itt_sync_releasing_init_3_0@@YAXPEAX@Z 0000000180027878     itt_notify.obj
 0002:00005878       $unwind$?__itt_task_end_init_3_0@@YAXPEBU___itt_domain@@@Z 0000000180027878     itt_notify.obj
 0002:00005878       $unwind$?__itt_thr_name_setA_init_3_0@@YAHPEBDH@Z 0000000180027878     itt_notify.obj
 0002:00005878       $unwind$?__itt_thr_name_setW_init_3_0@@YAHPEB_WH@Z 0000000180027878     itt_notify.obj
 0002:00005878       $unwind$?__itt_thread_set_nameA_init_3_0@@YAXPEBD@Z 0000000180027878     itt_notify.obj
 0002:00005878       $unwind$?__itt_thread_set_nameW_init_3_0@@YAXPEB_W@Z 0000000180027878     itt_notify.obj
 0002:00005878       $unwind$?internal_construct@mutex@tbb@@AEAAXXZ 0000000180027878     mutex.obj
 0002:00005878       $unwind$?internal_destroy@mutex@tbb@@AEAAXXZ 0000000180027878     mutex.obj
 0002:00005878       $unwind$?internal_release@scoped_lock@mutex@tbb@@AEAAXXZ 0000000180027878     mutex.obj
 0002:00005878       $unwind$??_Gpipeline_root_task@internal@tbb@@UEAAPEAXI@Z 0000000180027878     pipeline.obj
 0002:00005878       $unwind$??_Gtask@tbb@@UEAAPEAXI@Z 0000000180027878     pipeline.obj
 0002:00005878       $unwind$?internal_destroy@scoped_lock@reader_writer_lock@interface5@tbb@@AEAAXXZ 0000000180027878     reader_writer_lock.obj
 0002:00005878       $unwind$?try_lock_read@reader_writer_lock@interface5@tbb@@QEAA_NXZ 0000000180027878     reader_writer_lock.obj
 0002:00005878       $unwind$?internal_construct@recursive_mutex@tbb@@AEAAXXZ 0000000180027878     recursive_mutex.obj
 0002:00005878       $unwind$?internal_destroy@recursive_mutex@tbb@@AEAAXXZ 0000000180027878     recursive_mutex.obj
 0002:00005878       $unwind$?internal_release@scoped_lock@recursive_mutex@tbb@@AEAAXXZ 0000000180027878     recursive_mutex.obj
 0002:00005878       $unwind$??$advertise_new_work@$0A@@arena@internal@tbb@@QEAAXXZ 0000000180027878     scheduler.obj
 0002:00005878       $unwind$??_G?$custom_scheduler@UDefaultSchedulerTraits@internal@tbb@@@internal@tbb@@UEAAPEAXI@Z 0000000180027878     scheduler.obj
 0002:00005878       $unwind$??_G?$custom_scheduler@UIntelSchedulerTraits@internal@tbb@@@internal@tbb@@UEAAPEAXI@Z 0000000180027878     scheduler.obj
 0002:00005878       $unwind$??_Ggeneric_scheduler@internal@tbb@@UEAAPEAXI@Z 0000000180027878     scheduler.obj
 0002:00005878       $unwind$?internal_release@scoped_lock@spin_mutex@tbb@@AEAAXXZ 0000000180027878     spin_mutex.obj
 0002:00005878       $unwind$?internal_try_acquire@scoped_lock@spin_mutex@tbb@@AEAA_NAEAV23@@Z 0000000180027878     spin_mutex.obj
 0002:00005878       $unwind$?internal_downgrade@spin_rw_mutex_v3@tbb@@AEAAXXZ 0000000180027878     spin_rw_mutex.obj
 0002:00005878       $unwind$?internal_release_reader@spin_rw_mutex_v3@tbb@@AEAAXXZ 0000000180027878     spin_rw_mutex.obj
 0002:00005878       $unwind$?internal_release_writer@spin_rw_mutex_v3@tbb@@AEAAXXZ 0000000180027878     spin_rw_mutex.obj
 0002:00005878       $unwind$?internal_downgrade@spin_rw_mutex@tbb@@CAXPEAV12@@Z 0000000180027878     spin_rw_mutex_v2.obj
 0002:00005878       $unwind$?internal_release_reader@spin_rw_mutex@tbb@@CAXPEAV12@@Z 0000000180027878     spin_rw_mutex_v2.obj
 0002:00005878       $unwind$?internal_release_writer@spin_rw_mutex@tbb@@CAXPEAV12@@Z 0000000180027878     spin_rw_mutex_v2.obj
 0002:00005878       $unwind$?free@allocate_child_proxy@internal@tbb@@QEBAXAEAVtask@3@@Z 0000000180027878     task.obj
 0002:00005878       $unwind$?free@allocate_continuation_proxy@internal@tbb@@QEBAXAEAVtask@3@@Z 0000000180027878     task.obj
 0002:00005878       $unwind$?free@allocate_root_proxy@internal@tbb@@SAXAEAVtask@3@@Z 0000000180027878     task.obj
 0002:00005878       $unwind$?free@allocate_root_with_context_proxy@internal@tbb@@QEBAXAEAVtask@3@@Z 0000000180027878     task.obj
 0002:00005878       $unwind$??0exception_ptr@std@@QEAA@AEBV01@@Z 0000000180027878     task_group_context.obj
 0002:00005878       $unwind$??0tbb_exception@tbb@@QEAA@AEBV01@@Z 0000000180027878     task_group_context.obj
 0002:00005878       $unwind$??1captured_exception@tbb@@UEAA@XZ 0000000180027878     task_group_context.obj
 0002:00005878       $unwind$?capture_fp_settings@task_group_context@tbb@@QEAAXXZ 0000000180027878     task_group_context.obj
 0002:00005878       $unwind$?clear@captured_exception@tbb@@QEAAXXZ 0000000180027878     task_group_context.obj
 0002:00005878       $unwind$?destroy@captured_exception@tbb@@UEAAXXZ 0000000180027878     task_group_context.obj
 0002:00005878       $unwind$?itt_load_pointer_with_acquire_v3@internal@tbb@@YAPEAXPEBX@Z 0000000180027878     tbb_main.obj
 0002:00005878       $unwind$?itt_task_end_v7@internal@tbb@@YAXW4itt_domain_enum@12@@Z 0000000180027878     tbb_main.obj
 0002:00005878       $unwind$?terminate_auto_initialized_scheduler@governor@internal@tbb@@SAXXZ 0000000180027878     tbb_main.obj
 0002:00005878       $unwind$??0bad_alloc@std@@QEAA@AEBV01@@Z 0000000180027878     tbb_misc.obj
 0002:00005878       $unwind$??0bad_last_alloc@tbb@@QEAA@AEBV01@@Z 0000000180027878     tbb_misc.obj
 0002:00005878       $unwind$??0exception@std@@QEAA@AEBV01@@Z 0000000180027878     tbb_misc.obj
 0002:00005878       $unwind$??0improper_lock@tbb@@QEAA@AEBV01@@Z 0000000180027878     tbb_misc.obj
 0002:00005878       $unwind$??0invalid_argument@std@@QEAA@AEBV01@@Z 0000000180027878     tbb_misc.obj
 0002:00005878       $unwind$??0invalid_multiple_scheduling@tbb@@QEAA@AEBV01@@Z 0000000180027878     tbb_misc.obj
 0002:00005878       $unwind$??0length_error@std@@QEAA@AEBV01@@Z 0000000180027878     tbb_misc.obj
 0002:00005878       $unwind$??0logic_error@std@@QEAA@AEBV01@@Z 0000000180027878     tbb_misc.obj
 0002:00005878       $unwind$??0missing_wait@tbb@@QEAA@AEBV01@@Z 0000000180027878     tbb_misc.obj
 0002:00005878       $unwind$??0out_of_range@std@@QEAA@AEBV01@@Z 0000000180027878     tbb_misc.obj
 0002:00005878       $unwind$??0range_error@std@@QEAA@AEBV01@@Z 0000000180027878     tbb_misc.obj
 0002:00005878       $unwind$??0runtime_error@std@@QEAA@AEBV01@@Z 0000000180027878     tbb_misc.obj
 0002:00005878       $unwind$??0user_abort@tbb@@QEAA@AEBV01@@Z 0000000180027878     tbb_misc.obj
 0002:00005878       $unwind$?allocate_closure_v3@internal@tbb@@YAPEAX_K@Z 0000000180027878     tbb_thread.obj
 0002:00005878       $unwind$?detach@tbb_thread_v3@internal@tbb@@QEAAXXZ 0000000180027878     tbb_thread.obj
 0002:00005878       $unwind$?thread_get_id_v3@internal@tbb@@YA?AVid@tbb_thread_v3@12@XZ 0000000180027878     tbb_thread.obj
 0002:00005878       $unwind$__raise_securityfailure 0000000180027878     MSVCRT:gs_report.obj
 0002:00005878       $unwind$??2@YAPEAX_K@Z     0000000180027878     MSVCRT:new_scalar.obj
 0002:00005878       $unwind$??_Gtype_info@@UEAAPEAXI@Z 0000000180027878     MSVCRT:std_type_info_static.obj
 0002:00005878       $unwind$_Init_thread_abort 0000000180027878     MSVCRT:thread_safe_statics.obj
 0002:00005878       $unwind$_Init_thread_footer 0000000180027878     MSVCRT:thread_safe_statics.obj
 0002:00005878       $unwind$_Init_thread_header 0000000180027878     MSVCRT:thread_safe_statics.obj
 0002:00005878       $unwind$_Init_thread_wait  0000000180027878     MSVCRT:thread_safe_statics.obj
 0002:00005878       $unwind$??0bad_array_new_length@std@@QEAA@AEBV01@@Z 0000000180027878     MSVCRT:throw_bad_alloc.obj
 0002:00005878       $unwind$__scrt_initialize_crt 0000000180027878     MSVCRT:utility.obj
 0002:00005878       $unwind$__scrt_initialize_onexit_tables 0000000180027878     MSVCRT:utility.obj
 0002:00005878       $unwind$__scrt_release_startup_lock 0000000180027878     MSVCRT:utility.obj
 0002:00005878       $unwind$__scrt_uninitialize_crt 0000000180027878     MSVCRT:utility.obj
 0002:00005878       $unwind$_onexit            0000000180027878     MSVCRT:utility.obj
 0002:00005880       $unwind$?commit_wait@concurrent_monitor@internal@tbb@@QEAA_NAEAVthread_context@123@@Z 0000000180027880     concurrent_queue.obj
 0002:00005890       $chain$1$?commit_wait@concurrent_monitor@internal@tbb@@QEAA_NAEAVthread_context@123@@Z 0000000180027890     concurrent_queue.obj
 0002:000058a8       $chain$2$?commit_wait@concurrent_monitor@internal@tbb@@QEAA_NAEAVthread_context@123@@Z 00000001800278a8     concurrent_queue.obj
 0002:000058b8       $unwind$?abort_all@concurrent_monitor@internal@tbb@@QEAAXXZ 00000001800278b8     concurrent_queue.obj
 0002:000058c0       $chain$0$?abort_all@concurrent_monitor@internal@tbb@@QEAAXXZ 00000001800278c0     concurrent_queue.obj
 0002:000058d4       $chain$1$?abort_all@concurrent_monitor@internal@tbb@@QEAAXXZ 00000001800278d4     concurrent_queue.obj
 0002:000058e8       $chain$2$?abort_all@concurrent_monitor@internal@tbb@@QEAAXXZ 00000001800278e8     concurrent_queue.obj
 0002:000058f8       $chain$3$?abort_all@concurrent_monitor@internal@tbb@@QEAAXXZ 00000001800278f8     concurrent_queue.obj
 0002:00005908       $unwind$??1micro_queue_pop_finalizer@internal@tbb@@QEAA@XZ 0000000180027908     concurrent_queue.obj
 0002:00005928       $cppxdata$??1micro_queue_pop_finalizer@internal@tbb@@QEAA@XZ 0000000180027928     concurrent_queue.obj
 0002:0000592d       $ip2state$??1micro_queue_pop_finalizer@internal@tbb@@QEAA@XZ 000000018002792d     concurrent_queue.obj
 0002:00005934       $unwind$?push@micro_queue@internal@tbb@@QEAAXPEBX_KAEAVconcurrent_queue_base_v3@23@W4copy_specifics@423@@Z 0000000180027934     concurrent_queue.obj
 0002:00005950       $cppxdata$?push@micro_queue@internal@tbb@@QEAAXPEBX_KAEAVconcurrent_queue_base_v3@23@W4copy_specifics@423@@Z 0000000180027950     concurrent_queue.obj
 0002:0000595d       $stateUnwindMap$?push@micro_queue@internal@tbb@@QEAAXPEBX_KAEAVconcurrent_queue_base_v3@23@W4copy_specifics@423@@Z 000000018002795d     concurrent_queue.obj
 0002:00005962       $tryMap$?push@micro_queue@internal@tbb@@QEAAXPEBX_KAEAVconcurrent_queue_base_v3@23@W4copy_specifics@423@@Z 0000000180027962     concurrent_queue.obj
 0002:00005971       $handlerMap$?push@micro_queue@internal@tbb@@QEAAXPEBX_KAEAVconcurrent_queue_base_v3@23@W4copy_specifics@423@@Z 0000000180027971     concurrent_queue.obj
 0002:00005978       $handlerMap$0$?push@micro_queue@internal@tbb@@QEAAXPEBX_KAEAVconcurrent_queue_base_v3@23@W4copy_specifics@423@@Z 0000000180027978     concurrent_queue.obj
 0002:0000597f       $ip2state$?push@micro_queue@internal@tbb@@QEAAXPEBX_KAEAVconcurrent_queue_base_v3@23@W4copy_specifics@423@@Z 000000018002797f     concurrent_queue.obj
 0002:0000598c       $unwind$?catch$1@?0??internal_pop@concurrent_queue_base_v3@internal@tbb@@IEAAXPEAX@Z@4HA 000000018002798c     concurrent_queue.obj
 0002:0000598c       $unwind$?catch$1@?0??push@micro_queue@internal@tbb@@QEAAXPEBX_KAEAVconcurrent_queue_base_v3@23@W4copy_specifics@423@@Z@4HA 000000018002798c     concurrent_queue.obj
 0002:0000598c       $unwind$?catch$2@?0??internal_pop@concurrent_queue_base_v3@internal@tbb@@IEAAXPEAX@Z@4HA 000000018002798c     concurrent_queue.obj
 0002:0000598c       $unwind$?catch$2@?0??push@micro_queue@internal@tbb@@QEAAXPEBX_KAEAVconcurrent_queue_base_v3@23@W4copy_specifics@423@@Z@4HA 000000018002798c     concurrent_queue.obj
 0002:00005994       $unwind$?throw_self@tbb_exception_ptr@internal@tbb@@QEAAXXZ 0000000180027994     arena.obj
 0002:00005994       $unwind$?abort_push@micro_queue@internal@tbb@@QEAAX_KAEAVconcurrent_queue_base_v3@23@@Z 0000000180027994     concurrent_queue.obj
 0002:00005994       $unwind$?internal_grow_to_at_least@concurrent_vector_base@internal@tbb@@IEAAX_K0P6AXPEAX0@Z@Z 0000000180027994     concurrent_vector_v2.obj
 0002:00005994       $unwind$?initialize_cilk_interop@internal@tbb@@YA_NXZ 0000000180027994     governor.obj
 0002:00005994       $unwind$?update_arena_priority@market@internal@tbb@@QEAA_NAEAVarena@23@_J@Z 0000000180027994     market.obj
 0002:00005994       $unwind$?add_ref@__TBB_InitOnce@internal@tbb@@SAXXZ 0000000180027994     tbb_main.obj
 0002:0000599c       $unwind$?pop@micro_queue@internal@tbb@@QEAA_NPEAX_KAEAVconcurrent_queue_base_v3@23@@Z 000000018002799c     concurrent_queue.obj
 0002:000059c0       $cppxdata$?pop@micro_queue@internal@tbb@@QEAA_NPEAX_KAEAVconcurrent_queue_base_v3@23@@Z 00000001800279c0     concurrent_queue.obj
 0002:000059c9       $stateUnwindMap$?pop@micro_queue@internal@tbb@@QEAA_NPEAX_KAEAVconcurrent_queue_base_v3@23@@Z 00000001800279c9     concurrent_queue.obj
 0002:000059d5       $ip2state$?pop@micro_queue@internal@tbb@@QEAA_NPEAX_KAEAVconcurrent_queue_base_v3@23@@Z 00000001800279d5     concurrent_queue.obj
 0002:000059e0       $unwind$?assign@micro_queue@internal@tbb@@QEAAAEAU123@AEBU123@AEAVconcurrent_queue_base_v3@23@W4copy_specifics@423@@Z 00000001800279e0     concurrent_queue.obj
 0002:000059fc       $cppxdata$?assign@micro_queue@internal@tbb@@QEAAAEAU123@AEBU123@AEAVconcurrent_queue_base_v3@23@W4copy_specifics@423@@Z 00000001800279fc     concurrent_queue.obj
 0002:00005a09       $stateUnwindMap$?assign@micro_queue@internal@tbb@@QEAAAEAU123@AEBU123@AEAVconcurrent_queue_base_v3@23@W4copy_specifics@423@@Z 0000000180027a09     concurrent_queue.obj
 0002:00005a09       $stateUnwindMap$?internal_compact@concurrent_vector_base_v3@internal@tbb@@IEAAPEAX_KPEAXP6AX10@ZP6AX1PEBX0@Z@Z 0000000180027a09     concurrent_vector.obj
 0002:00005a0c       $tryMap$?assign@micro_queue@internal@tbb@@QEAAAEAU123@AEBU123@AEAVconcurrent_queue_base_v3@23@W4copy_specifics@423@@Z 0000000180027a0c     concurrent_queue.obj
 0002:00005a14       $handlerMap$?assign@micro_queue@internal@tbb@@QEAAAEAU123@AEBU123@AEAVconcurrent_queue_base_v3@23@W4copy_specifics@423@@Z 0000000180027a14     concurrent_queue.obj
 0002:00005a1b       $ip2state$?assign@micro_queue@internal@tbb@@QEAAAEAU123@AEBU123@AEAVconcurrent_queue_base_v3@23@W4copy_specifics@423@@Z 0000000180027a1b     concurrent_queue.obj
 0002:00005a24       $unwind$?catch$0@?0??assign@micro_queue@internal@tbb@@QEAAAEAU123@AEBU123@AEAVconcurrent_queue_base_v3@23@W4copy_specifics@423@@Z@4HA 0000000180027a24     concurrent_queue.obj
 0002:00005a24       $unwind$?catch$1@?0??internal_insert_item@concurrent_queue_base_v3@internal@tbb@@IEAAXPEBXW4copy_specifics@123@@Z@4HA 0000000180027a24     concurrent_queue.obj
 0002:00005a24       $unwind$?catch$2@?0??internal_insert_item@concurrent_queue_base_v3@internal@tbb@@IEAAXPEBXW4copy_specifics@123@@Z@4HA 0000000180027a24     concurrent_queue.obj
 0002:00005a2c       $unwind$??0auto_empty_task@internal@tbb@@QEAA@PEAVgeneric_scheduler@12@PEAVtask_group_context@2@@Z 0000000180027a2c     arena.obj
 0002:00005a2c       $unwind$?enqueue_task@arena@internal@tbb@@QEAAXAEAVtask@3@_JAEAVFastRandom@23@@Z 0000000180027a2c     arena.obj
 0002:00005a2c       $unwind$?make_invalid@micro_queue@internal@tbb@@QEAAX_K@Z 0000000180027a2c     concurrent_queue.obj
 0002:00005a2c       $unwind$?internal_push@concurrent_queue_base@internal@tbb@@IEAAXPEBX@Z 0000000180027a2c     concurrent_queue_v2.obj
 0002:00005a2c       $unwind$?internal_push_back@concurrent_vector_base_v3@internal@tbb@@IEAAPEAX_KAEA_K@Z 0000000180027a2c     concurrent_vector.obj
 0002:00005a2c       $unwind$?tally_completion_of_predecessor@?$custom_scheduler@UDefaultSchedulerTraits@internal@tbb@@@internal@tbb@@AEAAXAEAVtask@3@AEAPEAV43@_J@Z 0000000180027a2c     scheduler.obj
 0002:00005a2c       $unwind$??$propagate_task_group_state@_K@generic_scheduler@internal@tbb@@QEAAXPEQtask_group_context@2@_KAEAV32@_K@Z 0000000180027a2c     task_group_context.obj
 0002:00005a2c       $unwind$?internal_acquire_writer@x86_rtm_rw_mutex@internal@interface8@tbb@@AEAAXAEAVscoped_lock@1234@_N@Z 0000000180027a2c     x86_rtm_rw_mutex.obj
 0002:00005a44       $unwind$?prepare_wait@concurrent_monitor@internal@tbb@@QEAAXAEAVthread_context@123@_K@Z 0000000180027a44     concurrent_monitor.obj
 0002:00005a44       $unwind$??0concurrent_queue_base_v3@internal@tbb@@IEAA@_K@Z 0000000180027a44     concurrent_queue.obj
 0002:00005a44       $unwind$?initialize@concurrent_queue_iterator_base_v3@internal@tbb@@AEAAXAEBVconcurrent_queue_base_v3@23@_K@Z 0000000180027a44     concurrent_queue.obj
 0002:00005a44       $unwind$?internal_assign@concurrent_queue_base_v3@internal@tbb@@IEAAXAEBV123@W4copy_specifics@123@@Z 0000000180027a44     concurrent_queue.obj
 0002:00005a44       $unwind$?__itt_counter_set_value_ex_init_3_0@@YAXPEAU___itt_counter@@PEAU___itt_clock_domain@@_KPEAX@Z 0000000180027a44     itt_notify.obj
 0002:00005a44       $unwind$?__itt_frame_submit_v3_init_3_0@@YAXPEBU___itt_domain@@PEAU___itt_id@@_K2@Z 0000000180027a44     itt_notify.obj
 0002:00005a44       $unwind$?__itt_heap_allocate_end_init_3_0@@YAXPEAXPEAPEAX_KH@Z 0000000180027a44     itt_notify.obj
 0002:00005a44       $unwind$?__itt_heap_reallocate_begin_init_3_0@@YAXPEAX0_KH@Z 0000000180027a44     itt_notify.obj
 0002:00005a44       $unwind$?__itt_suppress_clear_range_init_3_0@@YAXW4__itt_suppress_mode@@IPEAX_K@Z 0000000180027a44     itt_notify.obj
 0002:00005a44       $unwind$?__itt_suppress_mark_range_init_3_0@@YAXW4__itt_suppress_mode@@IPEAX_K@Z 0000000180027a44     itt_notify.obj
 0002:00005a44       $unwind$?__itt_sync_createA_init_3_0@@YAXPEAXPEBD1H@Z 0000000180027a44     itt_notify.obj
 0002:00005a44       $unwind$?__itt_sync_createW_init_3_0@@YAXPEAXPEB_W1H@Z 0000000180027a44     itt_notify.obj
 0002:00005a44       $unwind$?__itt_sync_set_nameA_init_3_0@@YAXPEAXPEBD1H@Z 0000000180027a44     itt_notify.obj
 0002:00005a44       $unwind$?__itt_sync_set_nameW_init_3_0@@YAXPEAXPEB_W1H@Z 0000000180027a44     itt_notify.obj
 0002:00005a44       $unwind$?process@market@internal@tbb@@EEAAXAEAVjob@rml@@@Z 0000000180027a44     market.obj
 0002:00005a44       $unwind$?try_destroy_arena@market@internal@tbb@@QEAAXPEAVarena@23@_K@Z 0000000180027a44     market.obj
 0002:00005a44       $unwind$??2@YAPEAX_KAEBVallocate_root_with_context_proxy@internal@tbb@@@Z 0000000180027a44     pipeline.obj
 0002:00005a44       $unwind$?internal_acquire@scoped_lock@spin_mutex@tbb@@AEAAXAEAV23@@Z 0000000180027a44     spin_mutex.obj
 0002:00005a44       $unwind$?allocate@allocate_root_with_context_proxy@internal@tbb@@QEBAAEAVtask@3@_K@Z 0000000180027a44     task.obj
 0002:00005a44       $unwind$?spawn_and_wait_for_all@task@tbb@@QEAAXAEAVtask_list@2@@Z 0000000180027a44     task.obj
 0002:00005a44       $unwind$__scrt_dllmain_exception_filter 0000000180027a44     MSVCRT:utility.obj
 0002:00005a58       $unwind$??_Gconcurrent_queue_base_v3@internal@tbb@@MEAAPEAXI@Z 0000000180027a58     concurrent_queue.obj
 0002:00005a6c       $cppxdata$??_Gconcurrent_queue_base_v3@internal@tbb@@MEAAPEAXI@Z 0000000180027a6c     concurrent_queue.obj
 0002:00005a75       $stateUnwindMap$??1?$deque@PEAVtask@tbb@@V?$tbb_allocator@PEAVtask@tbb@@@2@@std@@QEAA@XZ 0000000180027a75     arena.obj
 0002:00005a75       $stateUnwindMap$??1?$task_stream@$02@internal@tbb@@QEAA@XZ 0000000180027a75     arena.obj
 0002:00005a75       $stateUnwindMap$??1task_scheduler_observer@interface6@tbb@@UEAA@XZ 0000000180027a75     arena.obj
 0002:00005a75       $stateUnwindMap$??_Gtask_scheduler_observer_v3@internal@tbb@@UEAAPEAXI@Z 0000000180027a75     arena.obj
 0002:00005a75       $stateUnwindMap$??_Gconcurrent_queue_base_v3@internal@tbb@@MEAAPEAXI@Z 0000000180027a75     concurrent_queue.obj
 0002:00005a75       $stateUnwindMap$??_Gconcurrent_queue_base@internal@tbb@@MEAAPEAXI@Z 0000000180027a75     concurrent_queue_v2.obj
 0002:00005a75       $stateUnwindMap$??1filter@tbb@@UEAA@XZ 0000000180027a75     pipeline.obj
 0002:00005a75       $stateUnwindMap$??1pipeline@tbb@@UEAA@XZ 0000000180027a75     pipeline.obj
 0002:00005a75       $stateUnwindMap$??_Gfilter@tbb@@UEAAPEAXI@Z 0000000180027a75     pipeline.obj
 0002:00005a75       $stateUnwindMap$??_Gpipeline@tbb@@UEAAPEAXI@Z 0000000180027a75     pipeline.obj
 0002:00005a75       $stateUnwindMap$??_Gstage_task@internal@tbb@@UEAAPEAXI@Z 0000000180027a75     pipeline.obj
 0002:00005a75       $stateUnwindMap$?clear@pipeline@tbb@@QEAAXXZ 0000000180027a75     pipeline.obj
 0002:00005a75       $stateUnwindMap$??_Gprivate_server@rml@internal@tbb@@EEAAPEAXI@Z 0000000180027a75     private_server.obj
 0002:00005a75       $stateUnwindMap$?start_write@reader_writer_lock@interface5@tbb@@AEAA_NPEAVscoped_lock@123@@Z 0000000180027a75     reader_writer_lock.obj
 0002:00005a75       $stateUnwindMap$?unlock@reader_writer_lock@interface5@tbb@@QEAAXXZ 0000000180027a75     reader_writer_lock.obj
 0002:00005a75       $stateUnwindMap$??_Gcaptured_exception@tbb@@UEAAPEAXI@Z 0000000180027a75     task_group_context.obj
 0002:00005a75       $stateUnwindMap$??_Gtbb_exception@tbb@@UEAAPEAXI@Z 0000000180027a75     task_group_context.obj
 0002:00005a7b       $ip2state$??_Gconcurrent_queue_base_v3@internal@tbb@@MEAAPEAXI@Z 0000000180027a7b     concurrent_queue.obj
 0002:00005a7b       $ip2state$?register_pending_exception@task_group_context@tbb@@QEAAXXZ 0000000180027a7b     task_group_context.obj
 0002:00005a80       $unwind$??1concurrent_queue_base_v3@internal@tbb@@MEAA@XZ 0000000180027a80     concurrent_queue.obj
 0002:00005a90       $cppxdata$??1concurrent_queue_base_v3@internal@tbb@@MEAA@XZ 0000000180027a90     concurrent_queue.obj
 0002:00005a95       $ip2state$??1concurrent_queue_base_v3@internal@tbb@@MEAA@XZ 0000000180027a95     concurrent_queue.obj
 0002:00005a98       $unwind$?internal_insert_item@concurrent_queue_base_v3@internal@tbb@@IEAAXPEBXW4copy_specifics@123@@Z 0000000180027a98     concurrent_queue.obj
 0002:00005ac0       $cppxdata$?internal_insert_item@concurrent_queue_base_v3@internal@tbb@@IEAAXPEBXW4copy_specifics@123@@Z 0000000180027ac0     concurrent_queue.obj
 0002:00005acd       $stateUnwindMap$?internal_insert_item@concurrent_queue_base_v3@internal@tbb@@IEAAXPEBXW4copy_specifics@123@@Z 0000000180027acd     concurrent_queue.obj
 0002:00005ad6       $tryMap$?internal_insert_item@concurrent_queue_base_v3@internal@tbb@@IEAAXPEBXW4copy_specifics@123@@Z 0000000180027ad6     concurrent_queue.obj
 0002:00005ade       $handlerMap$?internal_insert_item@concurrent_queue_base_v3@internal@tbb@@IEAAXPEBXW4copy_specifics@123@@Z 0000000180027ade     concurrent_queue.obj
 0002:00005aef       $ip2state$?internal_insert_item@concurrent_queue_base_v3@internal@tbb@@IEAAXPEBXW4copy_specifics@123@@Z 0000000180027aef     concurrent_queue.obj
 0002:00005afc       $unwind$?internal_pop@concurrent_queue_base_v3@internal@tbb@@IEAAXPEAX@Z 0000000180027afc     concurrent_queue.obj
 0002:00005b20       $cppxdata$?internal_pop@concurrent_queue_base_v3@internal@tbb@@IEAAXPEAX@Z 0000000180027b20     concurrent_queue.obj
 0002:00005b2d       $stateUnwindMap$?internal_pop@concurrent_queue_base_v3@internal@tbb@@IEAAXPEAX@Z 0000000180027b2d     concurrent_queue.obj
 0002:00005b36       $tryMap$?internal_pop@concurrent_queue_base_v3@internal@tbb@@IEAAXPEAX@Z 0000000180027b36     concurrent_queue.obj
 0002:00005b3e       $handlerMap$?internal_pop@concurrent_queue_base_v3@internal@tbb@@IEAAXPEAX@Z 0000000180027b3e     concurrent_queue.obj
 0002:00005b4f       $ip2state$?internal_pop@concurrent_queue_base_v3@internal@tbb@@IEAAXPEAX@Z 0000000180027b4f     concurrent_queue.obj
 0002:00005b5c       $unwind$??0nested_arena_context@internal@tbb@@QEAA@PEAVgeneric_scheduler@12@PEAVarena@12@_K_N3@Z 0000000180027b5c     arena.obj
 0002:00005b5c       $unwind$?internal_pop_if_present@concurrent_queue_base_v3@internal@tbb@@IEAA_NPEAX@Z 0000000180027b5c     concurrent_queue.obj
 0002:00005b5c       $unwind$?internal_pop_if_present@concurrent_queue_base@internal@tbb@@IEAA_NPEAX@Z 0000000180027b5c     concurrent_queue_v2.obj
 0002:00005b5c       $unwind$?internal_push_if_not_full@concurrent_queue_base@internal@tbb@@IEAA_NPEBX@Z 0000000180027b5c     concurrent_queue_v2.obj
 0002:00005b70       $unwind$?internal_insert_if_not_full@concurrent_queue_base_v3@internal@tbb@@IEAA_NPEBXW4copy_specifics@123@@Z 0000000180027b70     concurrent_queue.obj
 0002:00005b7c       $unwind$??0?$padded@U?$queue_and_mutex@PEAVtask@tbb@@Vspin_mutex@2@@internal@tbb@@$0IA@@internal@tbb@@QEAA@XZ 0000000180027b7c     arena.obj
 0002:00005b7c       $unwind$?internal_enqueue@task_arena_base@internal@interface7@tbb@@IEBAXAEAVtask@4@_J@Z 0000000180027b7c     arena.obj
 0002:00005b7c       $unwind$?internal_finish_clear@concurrent_queue_base_v3@internal@tbb@@IEAAXXZ 0000000180027b7c     concurrent_queue.obj
 0002:00005b7c       $unwind$??0concurrent_queue_base@internal@tbb@@IEAA@_K@Z 0000000180027b7c     concurrent_queue_v2.obj
 0002:00005b7c       $unwind$?internal_pop@concurrent_queue_base@internal@tbb@@IEAAXPEAX@Z 0000000180027b7c     concurrent_queue_v2.obj
 0002:00005b7c       $unwind$??$apply@Udestroy_body@helper@concurrent_vector_base_v3@internal@tbb@@@helper@concurrent_vector_base_v3@internal@tbb@@QEAA_KAEBUdestroy_body@0123@@Z 0000000180027b7c     concurrent_vector.obj
 0002:00005b7c       $unwind$?init_scheduler@governor@internal@tbb@@SAPEAVgeneric_scheduler@23@H_K_N@Z 0000000180027b7c     governor.obj
 0002:00005b7c       $unwind$?__itt_counter_dec_delta_v3_init_3_0@@YAXPEBU___itt_domain@@PEAU___itt_string_handle@@_K@Z 0000000180027b7c     itt_notify.obj
 0002:00005b7c       $unwind$?__itt_counter_inc_delta_v3_init_3_0@@YAXPEBU___itt_domain@@PEAU___itt_string_handle@@_K@Z 0000000180027b7c     itt_notify.obj
 0002:00005b7c       $unwind$?__itt_heap_allocate_begin_init_3_0@@YAXPEAX_KH@Z 0000000180027b7c     itt_notify.obj
 0002:00005b7c       $unwind$?__itt_model_site_begin_init_3_0@@YAXPEAPEAX0PEBD@Z 0000000180027b7c     itt_notify.obj
 0002:00005b7c       $unwind$?__itt_model_task_begin_init_3_0@@YAXPEAPEAX0PEBD@Z 0000000180027b7c     itt_notify.obj
 0002:00005b7c       $unwind$?__itt_module_loadA_init_3_0@@YAXPEAX0PEBD@Z 0000000180027b7c     itt_notify.obj
 0002:00005b7c       $unwind$?__itt_module_loadW_init_3_0@@YAXPEAX0PEB_W@Z 0000000180027b7c     itt_notify.obj
 0002:00005b7c       $unwind$?__itt_task_end_ex_init_3_0@@YAXPEBU___itt_domain@@PEAU___itt_clock_domain@@_K@Z 0000000180027b7c     itt_notify.obj
 0002:00005b7c       $unwind$?__itt_track_create_init_3_0@@YAPEAU___itt_track@@PEAU___itt_track_group@@PEAU___itt_string_handle@@W4___itt_track_type@@@Z 0000000180027b7c     itt_notify.obj
 0002:00005b7c       $unwind$?create_one_job@market@internal@tbb@@EEAAPEAVjob@rml@@XZ 0000000180027b7c     market.obj
 0002:00005b7c       $unwind$?fetch_and_or@interface5@tbb@@YA_KAEAU?$atomic@_K@2@_K@Z 0000000180027b7c     reader_writer_lock.obj
 0002:00005b7c       $unwind$?allocate@allocate_root_proxy@internal@tbb@@SAAEAVtask@3@_K@Z 0000000180027b7c     task.obj
 0002:00005b7c       $unwind$??0captured_exception@tbb@@QEAA@AEBV01@@Z 0000000180027b7c     task_group_context.obj
 0002:00005b7c       $unwind$?lock@spin_mutex@tbb@@QEAAXXZ 0000000180027b7c     task_group_context.obj
 0002:00005b7c       $unwind$?move_v3@internal@tbb@@YAXAEAVtbb_thread_v3@12@0@Z 0000000180027b7c     tbb_thread.obj
 0002:00005b7c       $unwind$_DllMainCRTStartup 0000000180027b7c     MSVCRT:dll_dllmain.obj
 0002:00005b8c       $unwind$?assign@concurrent_queue_iterator_base_v3@internal@tbb@@IEAAXAEBV123@@Z 0000000180027b8c     concurrent_queue.obj
 0002:00005b8c       $unwind$??0concurrent_queue_iterator_base@internal@tbb@@IEAA@AEBVconcurrent_queue_base@12@@Z 0000000180027b8c     concurrent_queue_v2.obj
 0002:00005b8c       $unwind$?steal_task@generic_scheduler@internal@tbb@@QEAAPEAVtask@3@_J@Z 0000000180027b8c     scheduler.obj
 0002:00005b98       $chain$0$?assign@concurrent_queue_iterator_base_v3@internal@tbb@@IEAAXAEBV123@@Z 0000000180027b98     concurrent_queue.obj
 0002:00005bac       $chain$1$?assign@concurrent_queue_iterator_base_v3@internal@tbb@@IEAAXAEBV123@@Z 0000000180027bac     concurrent_queue.obj
 0002:00005bbc       $unwind$??1concurrent_queue_iterator_base_v3@internal@tbb@@IEAA@XZ 0000000180027bbc     concurrent_queue.obj
 0002:00005bcc       $cppxdata$??1concurrent_queue_iterator_base_v3@internal@tbb@@IEAA@XZ 0000000180027bcc     concurrent_queue.obj
 0002:00005bd1       $ip2state$??1concurrent_queue_iterator_base_v3@internal@tbb@@IEAA@XZ 0000000180027bd1     concurrent_queue.obj
 0002:00005bd4       $unwind$??$notify@Upredicate_leq@internal@tbb@@@concurrent_monitor@internal@tbb@@QEAAXAEBUpredicate_leq@12@@Z 0000000180027bd4     concurrent_queue.obj
 0002:00005be0       $chain$0$??$notify@Upredicate_leq@internal@tbb@@@concurrent_monitor@internal@tbb@@QEAAXAEBUpredicate_leq@12@@Z 0000000180027be0     concurrent_queue.obj
 0002:00005bf4       $chain$2$??$notify@Upredicate_leq@internal@tbb@@@concurrent_monitor@internal@tbb@@QEAAXAEBUpredicate_leq@12@@Z 0000000180027bf4     concurrent_queue.obj
 0002:00005c0c       $chain$3$??$notify@Upredicate_leq@internal@tbb@@@concurrent_monitor@internal@tbb@@QEAAXAEBUpredicate_leq@12@@Z 0000000180027c0c     concurrent_queue.obj
 0002:00005c20       $chain$4$??$notify@Upredicate_leq@internal@tbb@@@concurrent_monitor@internal@tbb@@QEAAXAEBUpredicate_leq@12@@Z 0000000180027c20     concurrent_queue.obj
 0002:00005c30       $chain$5$??$notify@Upredicate_leq@internal@tbb@@@concurrent_monitor@internal@tbb@@QEAAXAEBUpredicate_leq@12@@Z 0000000180027c30     concurrent_queue.obj
 0002:00005c40       $unwind$?notify_one@concurrent_monitor@internal@tbb@@QEAAXXZ 0000000180027c40     arena.obj
 0002:00005c40       $unwind$?acquire_segment@helper@concurrent_vector_base_v3@internal@tbb@@SAAEAVsegment_t@234@AEAV234@_K1_N@Z 0000000180027c40     concurrent_vector.obj
 0002:00005c40       $unwind$?internal_initialize_condition_variable@internal@interface5@tbb@@YAXAEATcondvar_impl_t@123@@Z 0000000180027c40     condition_variable.obj
 0002:00005c40       $unwind$??0input_buffer@internal@tbb@@QEAA@_N0@Z 0000000180027c40     pipeline.obj
 0002:00005c40       $unwind$?downgrade_to_reader@scoped_lock@queuing_rw_mutex@tbb@@QEAA_NXZ 0000000180027c40     queuing_rw_mutex.obj
 0002:00005c40       $unwind$?lock@reader_writer_lock@interface5@tbb@@QEAAXXZ 0000000180027c40     reader_writer_lock.obj
 0002:00005c40       $unwind$?cleanup_scheduler@generic_scheduler@internal@tbb@@QEAAXXZ 0000000180027c40     scheduler.obj
 0002:00005c40       $unwind$?internal_upgrade@spin_rw_mutex_v3@tbb@@AEAA_NXZ 0000000180027c40     spin_rw_mutex.obj
 0002:00005c40       $unwind$?bind_to@task_group_context@tbb@@QEAAXPEAVgeneric_scheduler@internal@2@@Z 0000000180027c40     task_group_context.obj
 0002:00005c40       $unwind$?duplicate_string@tbb@@YAPEADPEBD@Z 0000000180027c40     task_group_context.obj
 0002:00005c40       $unwind$?active_value@allowed_parallelism_control@internal@tbb@@EEBA_KXZ 0000000180027c40     tbb_main.obj
 0002:00005c40       $unwind$?join@tbb_thread_v3@internal@tbb@@QEAAXXZ 0000000180027c40     tbb_thread.obj
 0002:00005c40       $unwind$?acquire@scoped_lock@spin_rw_mutex_v3@tbb@@QEAAXAEAV23@_N@Z 0000000180027c40     x86_rtm_rw_mutex.obj
 0002:00005c48       $chain$0$?acquire_segment@helper@concurrent_vector_base_v3@internal@tbb@@SAAEAVsegment_t@234@AEAV234@_K1_N@Z 0000000180027c48     concurrent_vector.obj
 0002:00005c5c       $chain$1$?acquire_segment@helper@concurrent_vector_base_v3@internal@tbb@@SAAEAVsegment_t@234@AEAV234@_K1_N@Z 0000000180027c5c     concurrent_vector.obj
 0002:00005c6c       $unwind$??1helper@concurrent_vector_base_v3@internal@tbb@@QEAA@XZ 0000000180027c6c     concurrent_vector.obj
 0002:00005c7c       $cppxdata$??1helper@concurrent_vector_base_v3@internal@tbb@@QEAA@XZ 0000000180027c7c     concurrent_vector.obj
 0002:00005c81       $ip2state$??1helper@concurrent_vector_base_v3@internal@tbb@@QEAA@XZ 0000000180027c81     concurrent_vector.obj
 0002:00005c84       $unwind$?extend_segment_table@helper@concurrent_vector_base_v3@internal@tbb@@SAXAEAV234@_K@Z 0000000180027c84     concurrent_vector.obj
 0002:00005c90       $chain$1$?extend_segment_table@helper@concurrent_vector_base_v3@internal@tbb@@SAXAEAV234@_K@Z 0000000180027c90     concurrent_vector.obj
 0002:00005ca8       $chain$2$?extend_segment_table@helper@concurrent_vector_base_v3@internal@tbb@@SAXAEAV234@_K@Z 0000000180027ca8     concurrent_vector.obj
 0002:00005cbc       $chain$3$?extend_segment_table@helper@concurrent_vector_base_v3@internal@tbb@@SAXAEAV234@_K@Z 0000000180027cbc     concurrent_vector.obj
 0002:00005ccc       $chain$4$?extend_segment_table@helper@concurrent_vector_base_v3@internal@tbb@@SAXAEAV234@_K@Z 0000000180027ccc     concurrent_vector.obj
 0002:00005cdc       $unwind$?enable_segment@helper@concurrent_vector_base_v3@internal@tbb@@SA_KAEAV234@_K1_N@Z 0000000180027cdc     concurrent_vector.obj
 0002:00005d00       $cppxdata$?enable_segment@helper@concurrent_vector_base_v3@internal@tbb@@SA_KAEAV234@_K1_N@Z 0000000180027d00     concurrent_vector.obj
 0002:00005d09       $stateUnwindMap$?enable_segment@helper@concurrent_vector_base_v3@internal@tbb@@SA_KAEAV234@_K1_N@Z 0000000180027d09     concurrent_vector.obj
 0002:00005d1b       $ip2state$?enable_segment@helper@concurrent_vector_base_v3@internal@tbb@@SA_KAEAV234@_K1_N@Z 0000000180027d1b     concurrent_vector.obj
 0002:00005d28       $unwind$??1segment_scope_guard@?1??enable_segment@helper@concurrent_vector_base_v3@internal@tbb@@SA_KAEAV345@_K1_N@Z@QEAA@XZ 0000000180027d28     concurrent_vector.obj
 0002:00005d38       $cppxdata$??1segment_scope_guard@?1??enable_segment@helper@concurrent_vector_base_v3@internal@tbb@@SA_KAEAV345@_K1_N@Z@QEAA@XZ 0000000180027d38     concurrent_vector.obj
 0002:00005d3d       $ip2state$??1segment_scope_guard@?1??enable_segment@helper@concurrent_vector_base_v3@internal@tbb@@SA_KAEAV345@_K1_N@Z@QEAA@XZ 0000000180027d3d     concurrent_vector.obj
 0002:00005d40       $unwind$?cleanup@helper@concurrent_vector_base_v3@internal@tbb@@QEAAXXZ 0000000180027d40     concurrent_vector.obj
 0002:00005d50       $chain$2$?cleanup@helper@concurrent_vector_base_v3@internal@tbb@@QEAAXXZ 0000000180027d50     concurrent_vector.obj
 0002:00005d6c       $chain$3$?cleanup@helper@concurrent_vector_base_v3@internal@tbb@@QEAAXXZ 0000000180027d6c     concurrent_vector.obj
 0002:00005d80       $chain$4$?cleanup@helper@concurrent_vector_base_v3@internal@tbb@@QEAAXXZ 0000000180027d80     concurrent_vector.obj
 0002:00005d90       $chain$5$?cleanup@helper@concurrent_vector_base_v3@internal@tbb@@QEAAXXZ 0000000180027d90     concurrent_vector.obj
 0002:00005da0       $unwind$??1concurrent_vector_base_v3@internal@tbb@@IEAA@XZ 0000000180027da0     concurrent_vector.obj
 0002:00005db0       $cppxdata$??1concurrent_vector_base_v3@internal@tbb@@IEAA@XZ 0000000180027db0     concurrent_vector.obj
 0002:00005db5       $ip2state$??1concurrent_vector_base_v3@internal@tbb@@IEAA@XZ 0000000180027db5     concurrent_vector.obj
 0002:00005db8       $unwind$?internal_throw_exception@concurrent_vector_base_v3@internal@tbb@@IEBAX_K@Z 0000000180027db8     concurrent_vector.obj
 0002:00005dc8       $unwind$?internal_reserve@concurrent_vector_base_v3@internal@tbb@@IEAAX_K00@Z 0000000180027dc8     concurrent_vector.obj
 0002:00005ddc       $unwind$?internal_copy@concurrent_vector_base_v3@internal@tbb@@IEAAXAEBV123@_KP6AXPEAXPEBX1@Z@Z 0000000180027ddc     concurrent_vector.obj
 0002:00005dec       $chain$1$?internal_copy@concurrent_vector_base_v3@internal@tbb@@IEAAXAEBV123@_KP6AXPEAXPEBX1@Z@Z 0000000180027dec     concurrent_vector.obj
 0002:00005e04       $chain$2$?internal_copy@concurrent_vector_base_v3@internal@tbb@@IEAAXAEBV123@_KP6AXPEAXPEBX1@Z@Z 0000000180027e04     concurrent_vector.obj
 0002:00005e18       $chain$3$?internal_copy@concurrent_vector_base_v3@internal@tbb@@IEAAXAEBV123@_KP6AXPEAXPEBX1@Z@Z 0000000180027e18     concurrent_vector.obj
 0002:00005e28       $chain$4$?internal_copy@concurrent_vector_base_v3@internal@tbb@@IEAAXAEBV123@_KP6AXPEAXPEBX1@Z@Z 0000000180027e28     concurrent_vector.obj
 0002:00005e38       $unwind$?is_out_of_work@arena@internal@tbb@@QEAA_NXZ 0000000180027e38     arena.obj
 0002:00005e38       $unwind$?internal_assign@concurrent_vector_base_v3@internal@tbb@@IEAAXAEBV123@_KP6AXPEAX1@ZP6AX2PEBX1@Z5@Z 0000000180027e38     concurrent_vector.obj
 0002:00005e50       $unwind$?free_arena@arena@internal@tbb@@QEAAXXZ 0000000180027e50     arena.obj
 0002:00005e50       $unwind$?internal_grow_to_at_least_with_result@concurrent_vector_base_v3@internal@tbb@@IEAA_K_K0P6AXPEAXPEBX0@Z2@Z 0000000180027e50     concurrent_vector.obj
 0002:00005e68       $unwind$?process@arena@internal@tbb@@QEAAXAEAVgeneric_scheduler@23@@Z 0000000180027e68     arena.obj
 0002:00005e68       $unwind$?internal_grow_by@concurrent_vector_base_v3@internal@tbb@@IEAA_K_K0P6AXPEAXPEBX0@Z2@Z 0000000180027e68     concurrent_vector.obj
 0002:00005e68       $unwind$?internal_grow_by@concurrent_vector_base@internal@tbb@@IEAA_K_K0P6AXPEAX0@Z@Z 0000000180027e68     concurrent_vector_v2.obj
 0002:00005e68       $unwind$?sign_on@governor@internal@tbb@@SAXPEAVgeneric_scheduler@23@@Z 0000000180027e68     governor.obj
 0002:00005e68       $unwind$__itt_init_ittlib  0000000180027e68     itt_notify.obj
 0002:00005e68       $unwind$?run@private_worker@rml@internal@tbb@@AEAAXXZ 0000000180027e68     private_server.obj
 0002:00005e68       $unwind$?active_value@global_control@interface9@tbb@@CA_KH@Z 0000000180027e68     tbb_main.obj
 0002:00005e68       $unwind$??0invalid_argument@std@@QEAA@PEBD@Z 0000000180027e68     tbb_misc.obj
 0002:00005e68       $unwind$??0length_error@std@@QEAA@PEBD@Z 0000000180027e68     tbb_misc.obj
 0002:00005e68       $unwind$??0out_of_range@std@@QEAA@PEBD@Z 0000000180027e68     tbb_misc.obj
 0002:00005e68       $unwind$??0range_error@std@@QEAA@PEBD@Z 0000000180027e68     tbb_misc.obj
 0002:00005e68       $unwind$??0runtime_error@std@@QEAA@PEBD@Z 0000000180027e68     tbb_misc.obj
 0002:00005e70       $unwind$?internal_grow@concurrent_vector_base_v3@internal@tbb@@IEAAX_K00P6AXPEAXPEBX0@Z2@Z 0000000180027e70     concurrent_vector.obj
 0002:00005e90       $cppxdata$?internal_grow@concurrent_vector_base_v3@internal@tbb@@IEAAX_K00P6AXPEAXPEBX0@Z2@Z 0000000180027e90     concurrent_vector.obj
 0002:00005e99       $stateUnwindMap$?internal_clear@concurrent_vector_base_v3@internal@tbb@@IEAA_KP6AXPEAX_K@Z@Z 0000000180027e99     concurrent_vector.obj
 0002:00005e99       $stateUnwindMap$?internal_grow@concurrent_vector_base_v3@internal@tbb@@IEAAX_K00P6AXPEAXPEBX0@Z2@Z 0000000180027e99     concurrent_vector.obj
 0002:00005e99       $stateUnwindMap$?internal_resize@concurrent_vector_base_v3@internal@tbb@@IEAAX_K00PEBXP6AXPEAX0@ZP6AX210@Z@Z 0000000180027e99     concurrent_vector.obj
 0002:00005ea5       $ip2state$?internal_grow@concurrent_vector_base_v3@internal@tbb@@IEAAX_K00P6AXPEAXPEBX0@Z2@Z 0000000180027ea5     concurrent_vector.obj
 0002:00005eb0       $unwind$?internal_resize@concurrent_vector_base_v3@internal@tbb@@IEAAX_K00PEBXP6AXPEAX0@ZP6AX210@Z@Z 0000000180027eb0     concurrent_vector.obj
 0002:00005ed0       $cppxdata$?internal_resize@concurrent_vector_base_v3@internal@tbb@@IEAAX_K00PEBXP6AXPEAX0@ZP6AX210@Z@Z 0000000180027ed0     concurrent_vector.obj
 0002:00005ed9       $ip2state$?internal_resize@concurrent_vector_base_v3@internal@tbb@@IEAAX_K00PEBXP6AXPEAX0@ZP6AX210@Z@Z 0000000180027ed9     concurrent_vector.obj
 0002:00005ee8       $unwind$?internal_clear@concurrent_vector_base_v3@internal@tbb@@IEAA_KP6AXPEAX_K@Z@Z 0000000180027ee8     concurrent_vector.obj
 0002:00005efc       $cppxdata$?internal_clear@concurrent_vector_base_v3@internal@tbb@@IEAA_KP6AXPEAX_K@Z@Z 0000000180027efc     concurrent_vector.obj
 0002:00005f05       $ip2state$?internal_clear@concurrent_vector_base_v3@internal@tbb@@IEAA_KP6AXPEAX_K@Z@Z 0000000180027f05     concurrent_vector.obj
 0002:00005f0c       $unwind$?internal_compact@concurrent_vector_base_v3@internal@tbb@@IEAAPEAX_KPEAXP6AX10@ZP6AX1PEBX0@Z@Z 0000000180027f0c     concurrent_vector.obj
 0002:00005f2c       $cppxdata$?internal_compact@concurrent_vector_base_v3@internal@tbb@@IEAAPEAX_KPEAXP6AX10@ZP6AX1PEBX0@Z@Z 0000000180027f2c     concurrent_vector.obj
 0002:00005f39       $tryMap$?internal_compact@concurrent_vector_base_v3@internal@tbb@@IEAAPEAX_KPEAXP6AX10@ZP6AX1PEBX0@Z@Z 0000000180027f39     concurrent_vector.obj
 0002:00005f41       $handlerMap$?internal_compact@concurrent_vector_base_v3@internal@tbb@@IEAAPEAX_KPEAXP6AX10@ZP6AX1PEBX0@Z@Z 0000000180027f41     concurrent_vector.obj
 0002:00005f48       $ip2state$?internal_compact@concurrent_vector_base_v3@internal@tbb@@IEAAPEAX_KPEAXP6AX10@ZP6AX1PEBX0@Z@Z 0000000180027f48     concurrent_vector.obj
 0002:00005f50       $unwind$?catch$2@?0??internal_compact@concurrent_vector_base_v3@internal@tbb@@IEAAPEAX_KPEAXP6AX10@ZP6AX1PEBX0@Z@Z@4HA 0000000180027f50     concurrent_vector.obj
 0002:00005f60       $cppxdata$?catch$2@?0??internal_compact@concurrent_vector_base_v3@internal@tbb@@IEAAPEAX_KPEAXP6AX10@ZP6AX1PEBX0@Z@Z@4HA 0000000180027f60     concurrent_vector.obj
 0002:00005f6a       $stateUnwindMap$?catch$2@?0??internal_compact@concurrent_vector_base_v3@internal@tbb@@IEAAPEAX_KPEAXP6AX10@ZP6AX1PEBX0@Z@Z@4HA 0000000180027f6a     concurrent_vector.obj
 0002:00005f74       $ip2state$?catch$2@?0??internal_compact@concurrent_vector_base_v3@internal@tbb@@IEAAPEAX_KPEAXP6AX10@ZP6AX1PEBX0@Z@Z@4HA 0000000180027f74     concurrent_vector.obj
 0002:00005f78       $unwind$?internal_swap@concurrent_vector_base_v3@internal@tbb@@IEAAXAEAV123@@Z 0000000180027f78     concurrent_vector.obj
 0002:00005f84       $chain$5$?internal_swap@concurrent_vector_base_v3@internal@tbb@@IEAAXAEAV123@@Z 0000000180027f84     concurrent_vector.obj
 0002:00005fac       $chain$6$?internal_swap@concurrent_vector_base_v3@internal@tbb@@IEAAXAEAV123@@Z 0000000180027fac     concurrent_vector.obj
 0002:00005fc8       $chain$7$?internal_swap@concurrent_vector_base_v3@internal@tbb@@IEAAXAEAV123@@Z 0000000180027fc8     concurrent_vector.obj
 0002:00005fdc       $chain$8$?internal_swap@concurrent_vector_base_v3@internal@tbb@@IEAAXAEAV123@@Z 0000000180027fdc     concurrent_vector.obj
 0002:00005fec       $unwind$?resolve_symbols@internal@tbb@@YA_NPEAUHINSTANCE__@@QEBUdynamic_link_descriptor@12@_K@Z 0000000180027fec     dynamic_link.obj
 0002:0000600c       $unwind$?_Xlen@?$deque@PEAVtask@tbb@@V?$tbb_allocator@PEAVtask@tbb@@@2@@std@@AEBAXXZ 000000018002800c     arena.obj
 0002:0000600c       $unwind$?execute@?$function_task@Vspawn_functor@graph@interface10@flow@tbb@@@internal@tbb@@EEAAPEAVtask@3@XZ 000000018002800c     arena.obj
 0002:0000600c       $unwind$?internal_current_slot@task_arena_base@internal@interface7@tbb@@KAHXZ 000000018002800c     arena.obj
 0002:0000600c       $unwind$?internal_max_concurrency@task_arena_base@internal@interface7@tbb@@KAHPEBVtask_arena@34@@Z 000000018002800c     arena.obj
 0002:0000600c       $unwind$?initialize_cache_aligned_allocator@internal@tbb@@YAXXZ 000000018002800c     cache_aligned_allocator.obj
 0002:0000600c       $unwind$?is_malloc_used_v3@internal@tbb@@YA_NXZ 000000018002800c     cache_aligned_allocator.obj
 0002:0000600c       $unwind$?init_dynamic_link_data@internal@tbb@@YAXXZ 000000018002800c     dynamic_link.obj
 0002:0000600c       $unwind$?initialize@numa_topology@internal@tbb@@YAXXZ 000000018002800c     governor.obj
 0002:0000600c       $unwind$?nodes_count@numa_topology@internal@tbb@@YAIXZ 000000018002800c     governor.obj
 0002:0000600c       $unwind$?one_time_init@governor@internal@tbb@@SAXXZ 000000018002800c     governor.obj
 0002:0000600c       $unwind$?stack_op_handler@governor@internal@tbb@@SAHW4__cilk_tbb_stack_op@@PEAX@Z 000000018002800c     governor.obj
 0002:0000600c       $unwind$?__itt_api_version_init_3_0@@YAPEBDXZ 000000018002800c     itt_notify.obj
 0002:0000600c       $unwind$?__itt_clock_domain_reset_init_3_0@@YAXXZ 000000018002800c     itt_notify.obj
 0002:0000600c       $unwind$?__itt_detach_init_3_0@@YAXXZ 000000018002800c     itt_notify.obj
 0002:0000600c       $unwind$?__itt_get_timestamp_init_3_0@@YA_KXZ 000000018002800c     itt_notify.obj
 0002:0000600c       $unwind$?__itt_heap_internal_access_begin_init_3_0@@YAXXZ 000000018002800c     itt_notify.obj
 0002:0000600c       $unwind$?__itt_heap_internal_access_end_init_3_0@@YAXXZ 000000018002800c     itt_notify.obj
 0002:0000600c       $unwind$?__itt_heap_record_memory_growth_begin_init_3_0@@YAXXZ 000000018002800c     itt_notify.obj
 0002:0000600c       $unwind$?__itt_heap_record_memory_growth_end_init_3_0@@YAXXZ 000000018002800c     itt_notify.obj
 0002:0000600c       $unwind$?__itt_model_disable_pop_init_3_0@@YAXXZ 000000018002800c     itt_notify.obj
 0002:0000600c       $unwind$?__itt_model_site_end_2_init_3_0@@YAXXZ 000000018002800c     itt_notify.obj
 0002:0000600c       $unwind$?__itt_model_task_end_2_init_3_0@@YAXXZ 000000018002800c     itt_notify.obj
 0002:0000600c       $unwind$?__itt_pause_init_3_0@@YAXXZ 000000018002800c     itt_notify.obj
 0002:0000600c       $unwind$?__itt_resume_init_3_0@@YAXXZ 000000018002800c     itt_notify.obj
 0002:0000600c       $unwind$?__itt_stack_caller_create_init_3_0@@YAPEAU___itt_caller@@XZ 000000018002800c     itt_notify.obj
 0002:0000600c       $unwind$?__itt_state_get_init_3_0@@YAHXZ 000000018002800c     itt_notify.obj
 0002:0000600c       $unwind$?__itt_suppress_pop_init_3_0@@YAXXZ 000000018002800c     itt_notify.obj
 0002:0000600c       $unwind$?__itt_thr_ignore_init_3_0@@YAXXZ 000000018002800c     itt_notify.obj
 0002:0000600c       $unwind$?__itt_thread_ignore_init_3_0@@YAXXZ 000000018002800c     itt_notify.obj
 0002:0000600c       $unwind$__itt_fini_ittlib  000000018002800c     itt_notify.obj
 0002:0000600c       $unwind$?acknowledge_close_connection@market@internal@tbb@@EEAAXXZ 000000018002800c     market.obj
 0002:0000600c       $unwind$?default_concurrency@private_server@rml@internal@tbb@@UEBAIXZ 000000018002800c     private_server.obj
 0002:0000600c       $unwind$?try_acquire@scoped_lock@queuing_mutex@tbb@@QEAA_NAEAV23@@Z 000000018002800c     queuing_mutex.obj
 0002:0000600c       $unwind$?try_acquire@scoped_lock@queuing_rw_mutex@tbb@@QEAA_NAEAV23@_N@Z 000000018002800c     queuing_rw_mutex.obj
 0002:0000600c       $unwind$??__Ethe_dummy_context@internal@tbb@@YAXXZ 000000018002800c     scheduler.obj
 0002:0000600c       $unwind$?internal_try_acquire_reader@spin_rw_mutex_v3@tbb@@AEAA_NXZ 000000018002800c     spin_rw_mutex.obj
 0002:0000600c       $unwind$?internal_try_acquire_writer@spin_rw_mutex_v3@tbb@@AEAA_NXZ 000000018002800c     spin_rw_mutex.obj
 0002:0000600c       $unwind$?internal_try_acquire_reader@spin_rw_mutex@tbb@@CA_NPEAV12@@Z 000000018002800c     spin_rw_mutex_v2.obj
 0002:0000600c       $unwind$?internal_try_acquire_writer@spin_rw_mutex@tbb@@CA_NPEAV12@@Z 000000018002800c     spin_rw_mutex_v2.obj
 0002:0000600c       $unwind$?get_initial_auto_partitioner_divisor@internal@tbb@@YA_KXZ 000000018002800c     task.obj
 0002:0000600c       $unwind$?self@task@tbb@@SAAEAV12@XZ 000000018002800c     task.obj
 0002:0000600c       $unwind$?ITT_DoUnsafeOneTimeInitialization@internal@tbb@@YAXXZ 000000018002800c     tbb_main.obj
 0002:0000600c       $unwind$?default_value@allowed_parallelism_control@internal@tbb@@EEBA_KXZ 000000018002800c     tbb_main.obj
 0002:0000600c       $unwind$?remove_ref@__TBB_InitOnce@internal@tbb@@SAXXZ 000000018002800c     tbb_main.obj
 0002:0000600c       $unwind$DllMain            000000018002800c     tbb_main.obj
 0002:0000600c       $unwind$ITT_DoOneTimeInitialization 000000018002800c     tbb_main.obj
 0002:0000600c       $unwind$?default_num_threads@governor@internal@tbb@@SAIXZ 000000018002800c     tbb_thread.obj
 0002:0000600c       $unwind$__scrt_initialize_default_local_stdio_options 000000018002800c     MSVCRT:default_local_stdio_options.obj
 0002:0000600c       $unwind$?dllmain_crt_dispatch@@YAHQEAUHINSTANCE__@@KQEAX@Z 000000018002800c     MSVCRT:dll_dllmain.obj
 0002:0000600c       $unwind$__report_rangecheckfailure 000000018002800c     MSVCRT:gs_report.obj
 0002:0000600c       $unwind$__GSHandlerCheck   000000018002800c     MSVCRT:gshandler.obj
 0002:0000600c       $unwind$?__scrt_uninitialize_thread_safe_statics@@YAXXZ 000000018002800c     MSVCRT:thread_safe_statics.obj
 0002:0000600c       $unwind$_Init_thread_notify 000000018002800c     MSVCRT:thread_safe_statics.obj
 0002:0000600c       $unwind$__scrt_acquire_startup_lock 000000018002800c     MSVCRT:utility.obj
 0002:0000600c       $unwind$__scrt_dllmain_after_initialize_c 000000018002800c     MSVCRT:utility.obj
 0002:0000600c       $unwind$__scrt_dllmain_before_initialize_c 000000018002800c     MSVCRT:utility.obj
 0002:0000600c       $unwind$__scrt_dllmain_crt_thread_attach 000000018002800c     MSVCRT:utility.obj
 0002:0000600c       $unwind$__scrt_dllmain_crt_thread_detach 000000018002800c     MSVCRT:utility.obj
 0002:0000600c       $unwind$__scrt_dllmain_uninitialize_c 000000018002800c     MSVCRT:utility.obj
 0002:0000600c       $unwind$__scrt_dllmain_uninitialize_critical 000000018002800c     MSVCRT:utility.obj
 0002:0000600c       $unwind$atexit             000000018002800c     MSVCRT:utility.obj
 0002:00006014       $chain$1$?init_dynamic_link_data@internal@tbb@@YAXXZ 0000000180028014     dynamic_link.obj
 0002:0000602c       $chain$3$?init_dynamic_link_data@internal@tbb@@YAXXZ 000000018002802c     dynamic_link.obj
 0002:00006044       $chain$4$?init_dynamic_link_data@internal@tbb@@YAXXZ 0000000180028044     dynamic_link.obj
 0002:00006054       $unwind$?dynamic_link@internal@tbb@@YA_NPEBDQEBUdynamic_link_descriptor@12@_KPEAPEAUHINSTANCE__@@H@Z 0000000180028054     dynamic_link.obj
 0002:00006074       $unwind$?execute@wait_task@internal@interface7@tbb@@EEAAPEAVtask@4@XZ 0000000180028074     arena.obj
 0002:00006074       $unwind$?restore_default@?$context_guard_helper@$0A@@internal@tbb@@QEAAXXZ 0000000180028074     arena.obj
 0002:00006074       $unwind$?NFS_Allocate@internal@tbb@@YAPEAX_K0PEAX@Z 0000000180028074     cache_aligned_allocator.obj
 0002:00006074       $unwind$?dummy_padded_allocate@internal@tbb@@YAPEAX_K0@Z 0000000180028074     cache_aligned_allocator.obj
 0002:00006074       $unwind$?assign@concurrent_queue_iterator_base@internal@tbb@@IEAAXAEBV123@@Z 0000000180028074     concurrent_queue_v2.obj
 0002:00006074       $unwind$?wake_all_condition_variable_using_event@internal@tbb@@YAXPEAUcondition_variable_using_event@1interface5@2@@Z 0000000180028074     condition_variable.obj
 0002:00006074       $unwind$?wake_condition_variable_using_event@internal@tbb@@YAXPEAUcondition_variable_using_event@1interface5@2@@Z 0000000180028074     condition_variable.obj
 0002:00006074       $unwind$?internal_blocking_terminate@task_scheduler_init@tbb@@AEAA_N_N@Z 0000000180028074     governor.obj
 0002:00006074       $unwind$?__itt_clock_domain_create_init_3_0@@YAPEAU___itt_clock_domain@@P6AXPEAU___itt_clock_info@@PEAX@Z1@Z 0000000180028074     itt_notify.obj
 0002:00006074       $unwind$?__itt_counter_dec_delta_init_3_0@@YAXPEAU___itt_counter@@_K@Z 0000000180028074     itt_notify.obj
 0002:00006074       $unwind$?__itt_counter_dec_v3_init_3_0@@YAXPEBU___itt_domain@@PEAU___itt_string_handle@@@Z 0000000180028074     itt_notify.obj
 0002:00006074       $unwind$?__itt_counter_inc_delta_init_3_0@@YAXPEAU___itt_counter@@_K@Z 0000000180028074     itt_notify.obj
 0002:00006074       $unwind$?__itt_counter_inc_v3_init_3_0@@YAXPEBU___itt_domain@@PEAU___itt_string_handle@@@Z 0000000180028074     itt_notify.obj
 0002:00006074       $unwind$?__itt_counter_set_value_init_3_0@@YAXPEAU___itt_counter@@PEAX@Z 0000000180028074     itt_notify.obj
 0002:00006074       $unwind$?__itt_event_createA_init_3_0@@YAHPEBDH@Z 0000000180028074     itt_notify.obj
 0002:00006074       $unwind$?__itt_event_createW_init_3_0@@YAHPEB_WH@Z 0000000180028074     itt_notify.obj
 0002:00006074       $unwind$?__itt_frame_begin_v3_init_3_0@@YAXPEBU___itt_domain@@PEAU___itt_id@@@Z 0000000180028074     itt_notify.obj
 0002:00006074       $unwind$?__itt_frame_end_v3_init_3_0@@YAXPEBU___itt_domain@@PEAU___itt_id@@@Z 0000000180028074     itt_notify.obj
 0002:00006074       $unwind$?__itt_get_env_var@@YAPEBDPEBD@Z 0000000180028074     itt_notify.obj
 0002:00006074       $unwind$?__itt_heap_free_begin_init_3_0@@YAXPEAX0@Z 0000000180028074     itt_notify.obj
 0002:00006074       $unwind$?__itt_heap_free_end_init_3_0@@YAXPEAX0@Z 0000000180028074     itt_notify.obj
 0002:00006074       $unwind$?__itt_heap_function_createA_init_3_0@@YAPEAXPEBD0@Z 0000000180028074     itt_notify.obj
 0002:00006074       $unwind$?__itt_heap_function_createW_init_3_0@@YAPEAXPEB_W0@Z 0000000180028074     itt_notify.obj
 0002:00006074       $unwind$?__itt_markA_init_3_0@@YAHHPEBD@Z 0000000180028074     itt_notify.obj
 0002:00006074       $unwind$?__itt_markW_init_3_0@@YAHHPEB_W@Z 0000000180028074     itt_notify.obj
 0002:00006074       $unwind$?__itt_mark_globalA_init_3_0@@YAHHPEBD@Z 0000000180028074     itt_notify.obj
 0002:00006074       $unwind$?__itt_mark_globalW_init_3_0@@YAHHPEB_W@Z 0000000180028074     itt_notify.obj
 0002:00006074       $unwind$?__itt_memory_read_init_3_0@@YAXPEAX_K@Z 0000000180028074     itt_notify.obj
 0002:00006074       $unwind$?__itt_memory_update_init_3_0@@YAXPEAX_K@Z 0000000180028074     itt_notify.obj
 0002:00006074       $unwind$?__itt_memory_write_init_3_0@@YAXPEAX_K@Z 0000000180028074     itt_notify.obj
 0002:00006074       $unwind$?__itt_model_induction_uses_init_3_0@@YAXPEAX_K@Z 0000000180028074     itt_notify.obj
 0002:00006074       $unwind$?__itt_model_iteration_taskAL_init_3_0@@YAXPEBD_K@Z 0000000180028074     itt_notify.obj
 0002:00006074       $unwind$?__itt_model_observe_uses_init_3_0@@YAXPEAX_K@Z 0000000180028074     itt_notify.obj
 0002:00006074       $unwind$?__itt_model_record_allocation_init_3_0@@YAXPEAX_K@Z 0000000180028074     itt_notify.obj
 0002:00006074       $unwind$?__itt_model_reduction_uses_init_3_0@@YAXPEAX_K@Z 0000000180028074     itt_notify.obj
 0002:00006074       $unwind$?__itt_model_site_beginAL_init_3_0@@YAXPEBD_K@Z 0000000180028074     itt_notify.obj
 0002:00006074       $unwind$?__itt_model_site_end_init_3_0@@YAXPEAPEAX0@Z 0000000180028074     itt_notify.obj
 0002:00006074       $unwind$?__itt_model_task_beginAL_init_3_0@@YAXPEBD_K@Z 0000000180028074     itt_notify.obj
 0002:00006074       $unwind$?__itt_model_task_end_init_3_0@@YAXPEAPEAX0@Z 0000000180028074     itt_notify.obj
 0002:00006074       $unwind$?__itt_obj_mode_set_init_3_0@@YA?AW4__itt_obj_state@@W4__itt_obj_prop@@W41@@Z 0000000180028074     itt_notify.obj
 0002:00006074       $unwind$?__itt_sync_renameA_init_3_0@@YAXPEAXPEBD@Z 0000000180028074     itt_notify.obj
 0002:00006074       $unwind$?__itt_sync_renameW_init_3_0@@YAXPEAXPEB_W@Z 0000000180028074     itt_notify.obj
 0002:00006074       $unwind$?__itt_thr_mode_set_init_3_0@@YA?AW4__itt_thr_state@@W4__itt_thr_prop@@W41@@Z 0000000180028074     itt_notify.obj
 0002:00006074       $unwind$?__itt_track_group_create_init_3_0@@YAPEAU___itt_track_group@@PEAU___itt_string_handle@@W4___itt_track_group_type@@@Z 0000000180028074     itt_notify.obj
 0002:00006074       $unwind$?internal_acquire@scoped_lock@mutex@tbb@@AEAAXAEAV23@@Z 0000000180028074     mutex.obj
 0002:00006074       $unwind$?internal_try_acquire@scoped_lock@mutex@tbb@@AEAA_NAEAV23@@Z 0000000180028074     mutex.obj
 0002:00006074       $unwind$?acquire@scoped_lock@queuing_mutex@tbb@@QEAAXAEAV23@@Z 0000000180028074     queuing_mutex.obj
 0002:00006074       $unwind$?internal_construct@scoped_lock@reader_writer_lock@interface5@tbb@@AEAAXAEAV234@@Z 0000000180028074     reader_writer_lock.obj
 0002:00006074       $unwind$?internal_construct@scoped_lock_read@reader_writer_lock@interface5@tbb@@AEAAXAEAV234@@Z 0000000180028074     reader_writer_lock.obj
 0002:00006074       $unwind$?internal_destroy@scoped_lock_read@reader_writer_lock@interface5@tbb@@AEAAXXZ 0000000180028074     reader_writer_lock.obj
 0002:00006074       $unwind$?internal_acquire@scoped_lock@recursive_mutex@tbb@@AEAAXAEAV23@@Z 0000000180028074     recursive_mutex.obj
 0002:00006074       $unwind$?internal_try_acquire@scoped_lock@recursive_mutex@tbb@@AEAA_NAEAV23@@Z 0000000180028074     recursive_mutex.obj
 0002:00006074       $unwind$?allocate_scheduler@?$custom_scheduler@UDefaultSchedulerTraits@internal@tbb@@@internal@tbb@@SAPEAVgeneric_scheduler@23@AEAVmarket@23@_N@Z 0000000180028074     scheduler.obj
 0002:00006074       $unwind$?allocate_scheduler@?$custom_scheduler@UIntelSchedulerTraits@internal@tbb@@@internal@tbb@@SAPEAVgeneric_scheduler@23@AEAVmarket@23@_N@Z 0000000180028074     scheduler.obj
 0002:00006074       $unwind$?enqueue@generic_scheduler@internal@tbb@@UEAAXAEAVtask@3@PEAX@Z 0000000180028074     scheduler.obj
 0002:00006074       $unwind$?restore_default@?$context_guard_helper@$00@internal@tbb@@QEAAXXZ 0000000180028074     scheduler.obj
 0002:00006074       $unwind$?spawn@generic_scheduler@internal@tbb@@UEAAXAEAVtask@3@AEAPEAV43@@Z 0000000180028074     scheduler.obj
 0002:00006074       $unwind$?wait_for_all@?$custom_scheduler@UDefaultSchedulerTraits@internal@tbb@@@internal@tbb@@EEAAXAEAVtask@3@PEAV43@@Z 0000000180028074     scheduler.obj
 0002:00006074       $unwind$?wait_for_all@?$custom_scheduler@UIntelSchedulerTraits@internal@tbb@@@internal@tbb@@EEAAXAEAVtask@3@PEAV43@@Z 0000000180028074     scheduler.obj
 0002:00006074       $unwind$?internal_acquire_reader@spin_rw_mutex_v3@tbb@@AEAAXXZ 0000000180028074     spin_rw_mutex.obj
 0002:00006074       $unwind$?allocate@allocate_additional_child_of_proxy@internal@tbb@@QEBAAEAVtask@3@_K@Z 0000000180028074     task.obj
 0002:00006074       $unwind$?allocate@allocate_child_proxy@internal@tbb@@QEBAAEAVtask@3@_K@Z 0000000180028074     task.obj
 0002:00006074       $unwind$?allocate@allocate_continuation_proxy@internal@tbb@@QEBAAEAVtask@3@_K@Z 0000000180028074     task.obj
 0002:00006074       $unwind$?change_group@task@tbb@@QEAAXAEAVtask_group_context@2@@Z 0000000180028074     task.obj
 0002:00006074       $unwind$?free@allocate_additional_child_of_proxy@internal@tbb@@QEBAXAEAVtask@3@@Z 0000000180028074     task.obj
 0002:00006074       $unwind$?internal_decrement_ref_count@task@tbb@@AEAA_JXZ 0000000180028074     task.obj
 0002:00006074       $unwind$?internal_set_ref_count@task@tbb@@AEAAXH@Z 0000000180028074     task.obj
 0002:00006074       $unwind$?move@captured_exception@tbb@@UEAAPEAV12@XZ 0000000180028074     task_group_context.obj
 0002:00006074       $unwind$?reset@task_group_context@tbb@@QEAAXXZ 0000000180028074     task_group_context.obj
 0002:00006074       $unwind$?set@captured_exception@tbb@@QEAAXPEBD0@Z 0000000180028074     task_group_context.obj
 0002:00006074       $unwind$?itt_store_pointer_with_release_v3@internal@tbb@@YAXPEAX0@Z 0000000180028074     tbb_main.obj
 0002:00006074       $unwind$??_Gbad_alloc@std@@UEAAPEAXI@Z 0000000180028074     tbb_misc.obj
 0002:00006074       $unwind$??_Gbad_last_alloc@tbb@@UEAAPEAXI@Z 0000000180028074     tbb_misc.obj
 0002:00006074       $unwind$??_Gexception@std@@UEAAPEAXI@Z 0000000180028074     tbb_misc.obj
 0002:00006074       $unwind$??_Gimproper_lock@tbb@@UEAAPEAXI@Z 0000000180028074     tbb_misc.obj
 0002:00006074       $unwind$??_Ginvalid_argument@std@@UEAAPEAXI@Z 0000000180028074     tbb_misc.obj
 0002:00006074       $unwind$??_Ginvalid_multiple_scheduling@tbb@@UEAAPEAXI@Z 0000000180028074     tbb_misc.obj
 0002:00006074       $unwind$??_Glength_error@std@@UEAAPEAXI@Z 0000000180028074     tbb_misc.obj
 0002:00006074       $unwind$??_Glogic_error@std@@UEAAPEAXI@Z 0000000180028074     tbb_misc.obj
 0002:00006074       $unwind$??_Gmissing_wait@tbb@@UEAAPEAXI@Z 0000000180028074     tbb_misc.obj
 0002:00006074       $unwind$??_Gout_of_range@std@@UEAAPEAXI@Z 0000000180028074     tbb_misc.obj
 0002:00006074       $unwind$??_Grange_error@std@@UEAAPEAXI@Z 0000000180028074     tbb_misc.obj
 0002:00006074       $unwind$??_Gruntime_error@std@@UEAAPEAXI@Z 0000000180028074     tbb_misc.obj
 0002:00006074       $unwind$??_Guser_abort@tbb@@UEAAPEAXI@Z 0000000180028074     tbb_misc.obj
 0002:00006074       $unwind$?internal_try_acquire_writer@x86_rtm_rw_mutex@internal@interface8@tbb@@AEAA_NAEAVscoped_lock@1234@@Z 0000000180028074     x86_rtm_rw_mutex.obj
 0002:00006074       $unwind$_RTC_Initialize    0000000180028074     MSVCRT:initsect.obj
 0002:00006074       $unwind$_RTC_Terminate     0000000180028074     MSVCRT:initsect.obj
 0002:00006074       $unwind$?__scrt_initialize_thread_safe_statics@@YAHXZ 0000000180028074     MSVCRT:thread_safe_statics.obj
 0002:00006074       $unwind$??_Gbad_array_new_length@std@@UEAAPEAXI@Z 0000000180028074     MSVCRT:throw_bad_alloc.obj
 0002:00006080       $unwind$?__itt_av_saveA_init_3_0@@YAHPEAXHPEBHHPEBDH@Z 0000000180028080     itt_notify.obj
 0002:00006080       $unwind$?__itt_av_saveW_init_3_0@@YAHPEAXHPEBHHPEB_WH@Z 0000000180028080     itt_notify.obj
 0002:00006080       $unwind$?__itt_heap_reallocate_end_init_3_0@@YAXPEAX0PEAPEAX_KH@Z 0000000180028080     itt_notify.obj
 0002:00006080       $unwind$?__itt_metadata_add_with_scope_init_3_0@@YAXPEBU___itt_domain@@W4__itt_scope@@PEAU___itt_string_handle@@W4__itt_metadata_type@@_KPEAX@Z 0000000180028080     itt_notify.obj
 0002:00006080       $unwind$?__itt_metadata_str_add_with_scopeA_init_3_0@@YAXPEBU___itt_domain@@W4__itt_scope@@PEAU___itt_string_handle@@PEBD_K@Z 0000000180028080     itt_notify.obj
 0002:00006080       $unwind$?__itt_metadata_str_add_with_scopeW_init_3_0@@YAXPEBU___itt_domain@@W4__itt_scope@@PEAU___itt_string_handle@@PEB_W_K@Z 0000000180028080     itt_notify.obj
 0002:00006080       $unwind$?__itt_notify_sync_nameA_init_3_0@@YAHPEAXPEBDH1HH@Z 0000000180028080     itt_notify.obj
 0002:00006080       $unwind$?__itt_notify_sync_nameW_init_3_0@@YAHPEAXPEB_WH1HH@Z 0000000180028080     itt_notify.obj
 0002:00006080       $unwind$?set_active_num_workers@market@internal@tbb@@SAXI@Z 0000000180028080     market.obj
 0002:00006080       $unwind$?assertion_failure@tbb@@YAXPEBDH00@Z 0000000180028080     tbb_misc.obj
 0002:00006094       $unwind$?__itt_id_create_init_3_0@@YAXPEBU___itt_domain@@U___itt_id@@@Z 0000000180028094     itt_notify.obj
 0002:00006094       $unwind$?__itt_id_destroy_init_3_0@@YAXPEBU___itt_domain@@U___itt_id@@@Z 0000000180028094     itt_notify.obj
 0002:00006094       $unwind$?__itt_region_end_init_3_0@@YAXPEBU___itt_domain@@U___itt_id@@@Z 0000000180028094     itt_notify.obj
 0002:00006094       $unwind$?__itt_task_end_overlapped_init_3_0@@YAXPEBU___itt_domain@@U___itt_id@@@Z 0000000180028094     itt_notify.obj
 0002:000060a0       $unwind$?__itt_region_begin_init_3_0@@YAXPEBU___itt_domain@@U___itt_id@@1PEAU___itt_string_handle@@@Z 00000001800280a0     itt_notify.obj
 0002:000060a0       $unwind$?__itt_relation_add_init_3_0@@YAXPEBU___itt_domain@@U___itt_id@@W4__itt_relation@@1@Z 00000001800280a0     itt_notify.obj
 0002:000060a0       $unwind$?__itt_task_begin_fn_init_3_0@@YAXPEBU___itt_domain@@U___itt_id@@1PEAX@Z 00000001800280a0     itt_notify.obj
 0002:000060a0       $unwind$?__itt_task_begin_init_3_0@@YAXPEBU___itt_domain@@U___itt_id@@1PEAU___itt_string_handle@@@Z 00000001800280a0     itt_notify.obj
 0002:000060a0       $unwind$?__itt_task_begin_overlapped_init_3_0@@YAXPEBU___itt_domain@@U___itt_id@@1PEAU___itt_string_handle@@@Z 00000001800280a0     itt_notify.obj
 0002:000060a0       $unwind$?__itt_task_group_init_3_0@@YAXPEBU___itt_domain@@U___itt_id@@1PEAU___itt_string_handle@@@Z 00000001800280a0     itt_notify.obj
 0002:000060b4       $unwind$?__itt_id_create_ex_init_3_0@@YAXPEBU___itt_domain@@PEAU___itt_clock_domain@@_KU___itt_id@@@Z 00000001800280b4     itt_notify.obj
 0002:000060b4       $unwind$?__itt_id_destroy_ex_init_3_0@@YAXPEBU___itt_domain@@PEAU___itt_clock_domain@@_KU___itt_id@@@Z 00000001800280b4     itt_notify.obj
 0002:000060b4       $unwind$?__itt_marker_init_3_0@@YAXPEBU___itt_domain@@U___itt_id@@PEAU___itt_string_handle@@W4__itt_scope@@@Z 00000001800280b4     itt_notify.obj
 0002:000060b4       $unwind$?__itt_task_end_overlapped_ex_init_3_0@@YAXPEBU___itt_domain@@PEAU___itt_clock_domain@@_KU___itt_id@@@Z 00000001800280b4     itt_notify.obj
 0002:000060c8       $unwind$?__itt_marker_ex_init_3_0@@YAXPEBU___itt_domain@@PEAU___itt_clock_domain@@_KU___itt_id@@PEAU___itt_string_handle@@W4__itt_scope@@@Z 00000001800280c8     itt_notify.obj
 0002:000060c8       $unwind$?__itt_metadata_add_init_3_0@@YAXPEBU___itt_domain@@U___itt_id@@PEAU___itt_string_handle@@W4__itt_metadata_type@@_KPEAX@Z 00000001800280c8     itt_notify.obj
 0002:000060c8       $unwind$?__itt_metadata_str_addA_init_3_0@@YAXPEBU___itt_domain@@U___itt_id@@PEAU___itt_string_handle@@PEBD_K@Z 00000001800280c8     itt_notify.obj
 0002:000060c8       $unwind$?__itt_metadata_str_addW_init_3_0@@YAXPEBU___itt_domain@@U___itt_id@@PEAU___itt_string_handle@@PEB_W_K@Z 00000001800280c8     itt_notify.obj
 0002:000060c8       $unwind$?__itt_relation_add_to_current_ex_init_3_0@@YAXPEBU___itt_domain@@PEAU___itt_clock_domain@@_KW4__itt_relation@@U___itt_id@@@Z 00000001800280c8     itt_notify.obj
 0002:000060dc       $unwind$?__itt_relation_add_to_current_init_3_0@@YAXPEBU___itt_domain@@W4__itt_relation@@U___itt_id@@@Z 00000001800280dc     itt_notify.obj
 0002:000060ec       $unwind$?__itt_relation_add_ex_init_3_0@@YAXPEBU___itt_domain@@PEAU___itt_clock_domain@@_KU___itt_id@@W4__itt_relation@@3@Z 00000001800280ec     itt_notify.obj
 0002:000060ec       $unwind$?__itt_task_begin_ex_init_3_0@@YAXPEBU___itt_domain@@PEAU___itt_clock_domain@@_KU___itt_id@@3PEAU___itt_string_handle@@@Z 00000001800280ec     itt_notify.obj
 0002:000060ec       $unwind$?__itt_task_begin_fn_ex_init_3_0@@YAXPEBU___itt_domain@@PEAU___itt_clock_domain@@_KU___itt_id@@3PEAX@Z 00000001800280ec     itt_notify.obj
 0002:000060ec       $unwind$?__itt_task_begin_overlapped_ex_init_3_0@@YAXPEBU___itt_domain@@PEAU___itt_clock_domain@@_KU___itt_id@@3PEAU___itt_string_handle@@@Z 00000001800280ec     itt_notify.obj
 0002:00006100       $unwind$?__itt_report_error_impl@@YAXHZZ 0000000180028100     itt_notify.obj
 0002:00006108       $unwind$?__itt_domain_createA_init_3_0@@YAPEAU___itt_domain@@PEBD@Z 0000000180028108     itt_notify.obj
 0002:00006108       $unwind$?__itt_domain_createW_init_3_0@@YAPEAU___itt_domain@@PEB_W@Z 0000000180028108     itt_notify.obj
 0002:00006108       $unwind$?__itt_string_handle_createA_init_3_0@@YAPEAU___itt_string_handle@@PEBD@Z 0000000180028108     itt_notify.obj
 0002:00006108       $unwind$?__itt_string_handle_createW_init_3_0@@YAPEAU___itt_string_handle@@PEB_W@Z 0000000180028108     itt_notify.obj
 0002:0000611c       $unwind$?__itt_counter_createW_init_3_0@@YAPEAU___itt_counter@@PEB_W0@Z 000000018002811c     itt_notify.obj
 0002:00006134       $unwind$?__itt_counter_createA_init_3_0@@YAPEAU___itt_counter@@PEBD0@Z 0000000180028134     itt_notify.obj
 0002:0000614c       $unwind$?__itt_counter_create_typedW_init_3_0@@YAPEAU___itt_counter@@PEB_W0W4__itt_metadata_type@@@Z 000000018002814c     itt_notify.obj
 0002:00006164       $unwind$?__itt_counter_create_typedA_init_3_0@@YAPEAU___itt_counter@@PEBD0W4__itt_metadata_type@@@Z 0000000180028164     itt_notify.obj
 0002:0000617c       $unwind$?__itt_get_groups@@YA?AW4___itt_group_id@@XZ 000000018002817c     itt_notify.obj
 0002:0000619c       $chain$0$?__itt_get_groups@@YA?AW4___itt_group_id@@XZ 000000018002819c     itt_notify.obj
 0002:000061b0       $chain$1$?__itt_get_groups@@YA?AW4___itt_group_id@@XZ 00000001800281b0     itt_notify.obj
 0002:000061c0       $chain$2$?__itt_get_groups@@YA?AW4___itt_group_id@@XZ 00000001800281c0     itt_notify.obj
 0002:000061d4       $chain$1$__itt_init_ittlib 00000001800281d4     itt_notify.obj
 0002:000061ec       $chain$2$__itt_init_ittlib 00000001800281ec     itt_notify.obj
 0002:00006200       $chain$4$__itt_init_ittlib 0000000180028200     itt_notify.obj
 0002:00006218       $chain$5$__itt_init_ittlib 0000000180028218     itt_notify.obj
 0002:00006228       $chain$6$__itt_init_ittlib 0000000180028228     itt_notify.obj
 0002:00006238       $chain$7$__itt_init_ittlib 0000000180028238     itt_notify.obj
 0002:00006248       $unwind$?initialize_handler_pointers@internal@tbb@@YAXXZ 0000000180028248     cache_aligned_allocator.obj
 0002:00006248       $unwind$?init_condvar_module@internal@tbb@@YAXXZ 0000000180028248     condition_variable.obj
 0002:00006264       $chain$0$?initialize_handler_pointers@internal@tbb@@YAXXZ 0000000180028264     cache_aligned_allocator.obj
 0002:00006278       $chain$1$?initialize_handler_pointers@internal@tbb@@YAXXZ 0000000180028278     cache_aligned_allocator.obj
 0002:00006288       $chain$1$?initialize_cache_aligned_allocator@internal@tbb@@YAXXZ 0000000180028288     cache_aligned_allocator.obj
 0002:000062a0       $chain$3$?initialize_cache_aligned_allocator@internal@tbb@@YAXXZ 00000001800282a0     cache_aligned_allocator.obj
 0002:000062b8       $chain$4$?initialize_cache_aligned_allocator@internal@tbb@@YAXXZ 00000001800282b8     cache_aligned_allocator.obj
 0002:000062c8       $unwind$??0task_group_context@tbb@@QEAA@W4kind_type@01@_K@Z 00000001800282c8     pipeline.obj
 0002:000062dc       $unwind$??_Gfilter@tbb@@UEAAPEAXI@Z 00000001800282dc     pipeline.obj
 0002:000062fc       $cppxdata$??_Gfilter@tbb@@UEAAPEAXI@Z 00000001800282fc     pipeline.obj
 0002:00006305       $ip2state$??_Gfilter@tbb@@UEAAPEAXI@Z 0000000180028305     pipeline.obj
 0002:0000630c       $chain$0$??0input_buffer@internal@tbb@@QEAA@_N0@Z 000000018002830c     pipeline.obj
 0002:00006320       $chain$1$??0input_buffer@internal@tbb@@QEAA@_N0@Z 0000000180028320     pipeline.obj
 0002:00006330       $unwind$?put_token@input_buffer@internal@tbb@@QEAA_NAEAUtask_info@23@_N@Z 0000000180028330     pipeline.obj
 0002:00006354       $cppxdata$?put_token@input_buffer@internal@tbb@@QEAA_NAEAUtask_info@23@_N@Z 0000000180028354     pipeline.obj
 0002:0000635d       $stateUnwindMap$?push@?$task_stream@$02@internal@tbb@@QEAAXPEAVtask@3@HAEAVFastRandom@23@@Z 000000018002835d     arena.obj
 0002:0000635d       $stateUnwindMap$?global_market@market@internal@tbb@@CAAEAV123@_NI_K@Z 000000018002835d     market.obj
 0002:0000635d       $stateUnwindMap$?put_token@input_buffer@internal@tbb@@QEAA_NAEAUtask_info@23@_N@Z 000000018002835d     pipeline.obj
 0002:0000635d       $stateUnwindMap$?return_item@input_buffer@internal@tbb@@QEAA_NAEAUtask_info@23@_N@Z 000000018002835d     pipeline.obj
 0002:0000635d       $stateUnwindMap$?cleanup_master@generic_scheduler@internal@tbb@@QEAA_N_N@Z 000000018002835d     scheduler.obj
 0002:0000635d       $stateUnwindMap$?create_master@generic_scheduler@internal@tbb@@SAPEAV123@PEAVarena@23@@Z 000000018002835d     scheduler.obj
 0002:00006364       $ip2state$?put_token@input_buffer@internal@tbb@@QEAA_NAEAUtask_info@23@_N@Z 0000000180028364     pipeline.obj
 0002:0000636c       $unwind$?return_item@input_buffer@internal@tbb@@QEAA_NAEAUtask_info@23@_N@Z 000000018002836c     pipeline.obj
 0002:0000638c       $cppxdata$?return_item@input_buffer@internal@tbb@@QEAA_NAEAUtask_info@23@_N@Z 000000018002838c     pipeline.obj
 0002:00006395       $ip2state$?return_item@input_buffer@internal@tbb@@QEAA_NAEAUtask_info@23@_N@Z 0000000180028395     pipeline.obj
 0002:0000639c       $unwind$?sleep_condition_variable_cs_using_event@internal@tbb@@YAHPEAUcondition_variable_using_event@1interface5@2@PEAU_RTL_CRITICAL_SECTION@@K@Z 000000018002839c     condition_variable.obj
 0002:0000639c       $unwind$?release@market@internal@tbb@@QEAA_N_N0@Z 000000018002839c     market.obj
 0002:0000639c       $unwind$?grow@input_buffer@internal@tbb@@AEAAXK@Z 000000018002839c     pipeline.obj
 0002:0000639c       $unwind$?allocate_task@generic_scheduler@internal@tbb@@QEAAAEAVtask@3@_KPEAV43@PEAVtask_group_context@3@@Z 000000018002839c     scheduler.obj
 0002:0000639c       $unwind$??$propagate_task_group_state@_J@generic_scheduler@internal@tbb@@QEAAXPEQtask_group_context@2@_JAEAV32@_J@Z 000000018002839c     task_group_context.obj
 0002:0000639c       $unwind$?internal_acquire_reader@x86_rtm_rw_mutex@internal@interface8@tbb@@AEAAXAEAVscoped_lock@1234@_N@Z 000000018002839c     x86_rtm_rw_mutex.obj
 0002:000063b4       $unwind$??_Gstage_task@internal@tbb@@UEAAPEAXI@Z 00000001800283b4     pipeline.obj
 0002:000063c8       $cppxdata$??_Gstage_task@internal@tbb@@UEAAPEAXI@Z 00000001800283c8     pipeline.obj
 0002:000063d1       $ip2state$??_Gstage_task@internal@tbb@@UEAAPEAXI@Z 00000001800283d1     pipeline.obj
 0002:000063d4       $unwind$?execute@stage_task@internal@tbb@@UEAAPEAVtask@3@XZ 00000001800283d4     pipeline.obj
 0002:000063e8       $unwind$?execute@pipeline_root_task@internal@tbb@@EEAAPEAVtask@3@XZ 00000001800283e8     pipeline.obj
 0002:00006408       $cppxdata$?execute@pipeline_root_task@internal@tbb@@EEAAPEAVtask@3@XZ 0000000180028408     pipeline.obj
 0002:00006411       $stateUnwindMap$?execute@pipeline_root_task@internal@tbb@@EEAAPEAVtask@3@XZ 0000000180028411     pipeline.obj
 0002:00006411       $stateUnwindMap$?internal_process_item@thread_bound_filter@tbb@@AEAA?AW4result_type@12@_N@Z 0000000180028411     pipeline.obj
 0002:00006411       $stateUnwindMap$?internal_create@global_control@interface9@tbb@@AEAAXXZ 0000000180028411     tbb_main.obj
 0002:00006411       $stateUnwindMap$?internal_destroy@global_control@interface9@tbb@@AEAAXXZ 0000000180028411     tbb_main.obj
 0002:00006418       $ip2state$?execute@pipeline_root_task@internal@tbb@@EEAAPEAVtask@3@XZ 0000000180028418     pipeline.obj
 0002:00006420       $unwind$??1pipeline_cleaner@internal@tbb@@QEAA@XZ 0000000180028420     pipeline.obj
 0002:00006440       $cppxdata$??1pipeline_cleaner@internal@tbb@@QEAA@XZ 0000000180028440     pipeline.obj
 0002:00006445       $ip2state$??1pipeline_cleaner@internal@tbb@@QEAA@XZ 0000000180028445     pipeline.obj
 0002:0000644c       $unwind$??_Gpipeline@tbb@@UEAAPEAXI@Z 000000018002844c     pipeline.obj
 0002:0000646c       $cppxdata$??_Gpipeline@tbb@@UEAAPEAXI@Z 000000018002846c     pipeline.obj
 0002:00006475       $ip2state$??_Gpipeline@tbb@@UEAAPEAXI@Z 0000000180028475     pipeline.obj
 0002:00006478       $unwind$??1pipeline@tbb@@UEAA@XZ 0000000180028478     pipeline.obj
 0002:00006498       $cppxdata$??1pipeline@tbb@@UEAA@XZ 0000000180028498     pipeline.obj
 0002:000064a1       $ip2state$??1pipeline@tbb@@UEAA@XZ 00000001800284a1     pipeline.obj
 0002:000064a4       $unwind$?clear@pipeline@tbb@@QEAAXXZ 00000001800284a4     pipeline.obj
 0002:000064c4       $cppxdata$?clear@pipeline@tbb@@QEAAXXZ 00000001800284c4     pipeline.obj
 0002:000064cd       $ip2state$?clear@pipeline@tbb@@QEAAXXZ 00000001800284cd     pipeline.obj
 0002:000064d0       $unwind$?add_filter@pipeline@tbb@@QEAAXAEAVfilter@2@@Z 00000001800284d0     pipeline.obj
 0002:000064e8       $cppxdata$?add_filter@pipeline@tbb@@QEAAXAEAVfilter@2@@Z 00000001800284e8     pipeline.obj
 0002:000064f1       $stateUnwindMap$?add_filter@pipeline@tbb@@QEAAXAEAVfilter@2@@Z 00000001800284f1     pipeline.obj
 0002:00006506       $ip2state$?add_filter@pipeline@tbb@@QEAAXAEAVfilter@2@@Z 0000000180028506     pipeline.obj
 0002:0000651c       $unwind$?dtor$1@?0???0arena@internal@tbb@@QEAA@AEAVmarket@12@II@Z@4HA 000000018002851c     arena.obj
 0002:0000651c       $unwind$?dtor$1@?0??internal_initialize@task_arena_base@internal@interface7@tbb@@IEAAXXZ@4HA 000000018002851c     arena.obj
 0002:0000651c       $unwind$?dtor$0@?0??add_filter@pipeline@tbb@@QEAAXAEAVfilter@2@@Z@4HA 000000018002851c     pipeline.obj
 0002:0000651c       $unwind$?dtor$1@?0??add_filter@pipeline@tbb@@QEAAXAEAVfilter@2@@Z@4HA 000000018002851c     pipeline.obj
 0002:0000651c       $unwind$?dtor$2@?0??add_filter@pipeline@tbb@@QEAAXAEAVfilter@2@@Z@4HA 000000018002851c     pipeline.obj
 0002:0000651c       $unwind$?dtor$3@?0??add_filter@pipeline@tbb@@QEAAXAEAVfilter@2@@Z@4HA 000000018002851c     pipeline.obj
 0002:0000651c       $unwind$?fin$0@?0??dllmain_crt_process_attach@@YAHQEAUHINSTANCE__@@QEAX@Z@4HA 000000018002851c     MSVCRT:dll_dllmain.obj
 0002:0000651c       $unwind$?fin$0@?0??dllmain_crt_process_detach@@YAH_N@Z@4HA 000000018002851c     MSVCRT:dll_dllmain.obj
 0002:0000651c       $unwind$?fin$1@?0??dllmain_crt_process_detach@@YAH_N@Z@4HA 000000018002851c     MSVCRT:dll_dllmain.obj
 0002:0000651c       $unwind$?fin$0@?0???_L@YAXPEAX_K1P6AX0@Z2@Z@4HA 000000018002851c     MSVCRT:ehvecctr.obj
 0002:0000651c       $unwind$?fin$0@?0???_M@YAXPEAX_K1P6AX0@Z@Z@4HA 000000018002851c     MSVCRT:ehvecdtr.obj
 0002:00006524       $unwind$?run@pipeline@tbb@@QEAAX_KAEAVtask_group_context@2@@Z 0000000180028524     pipeline.obj
 0002:00006540       $cppxdata$?run@pipeline@tbb@@QEAAX_KAEAVtask_group_context@2@@Z 0000000180028540     pipeline.obj
 0002:00006549       $stateUnwindMap$?run@pipeline@tbb@@QEAAX_KAEAVtask_group_context@2@@Z 0000000180028549     pipeline.obj
 0002:00006555       $ip2state$?run@pipeline@tbb@@QEAAX_KAEAVtask_group_context@2@@Z 0000000180028555     pipeline.obj
 0002:00006560       $unwind$?run@pipeline@tbb@@QEAAX_K@Z 0000000180028560     pipeline.obj
 0002:0000657c       $cppxdata$?run@pipeline@tbb@@QEAAX_K@Z 000000018002857c     pipeline.obj
 0002:00006585       $stateUnwindMap$?run@pipeline@tbb@@QEAAX_K@Z 0000000180028585     pipeline.obj
 0002:0000658c       $ip2state$?run@pipeline@tbb@@QEAAX_K@Z 000000018002858c     pipeline.obj
 0002:00006594       $unwind$??1filter@tbb@@UEAA@XZ 0000000180028594     pipeline.obj
 0002:000065b0       $cppxdata$??1filter@tbb@@UEAA@XZ 00000001800285b0     pipeline.obj
 0002:000065b9       $ip2state$??1filter@tbb@@UEAA@XZ 00000001800285b9     pipeline.obj
 0002:000065bc       $unwind$?internal_process_item@thread_bound_filter@tbb@@AEAA?AW4result_type@12@_N@Z 00000001800285bc     pipeline.obj
 0002:000065dc       $cppxdata$?internal_process_item@thread_bound_filter@tbb@@AEAA?AW4result_type@12@_N@Z 00000001800285dc     pipeline.obj
 0002:000065e5       $ip2state$?internal_process_item@thread_bound_filter@tbb@@AEAA?AW4result_type@12@_N@Z 00000001800285e5     pipeline.obj
 0002:000065f0       $unwind$??$note_done@Vstage_task@internal@tbb@@@input_buffer@internal@tbb@@QEAAXKAEAVstage_task@12@@Z 00000001800285f0     pipeline.obj
 0002:00006610       $cppxdata$??$note_done@Vstage_task@internal@tbb@@@input_buffer@internal@tbb@@QEAAXKAEAVstage_task@12@@Z 0000000180028610     pipeline.obj
 0002:00006619       $stateUnwindMap$??$note_done@Vstage_task@internal@tbb@@@input_buffer@internal@tbb@@QEAAXKAEAVstage_task@12@@Z 0000000180028619     pipeline.obj
 0002:00006620       $ip2state$??$note_done@Vstage_task@internal@tbb@@@input_buffer@internal@tbb@@QEAAXKAEAVstage_task@12@@Z 0000000180028620     pipeline.obj
 0002:00006628       $unwind$?release@scoped_lock@queuing_mutex@tbb@@QEAAXXZ 0000000180028628     queuing_mutex.obj
 0002:00006634       $chain$0$?release@scoped_lock@queuing_mutex@tbb@@QEAAXXZ 0000000180028634     queuing_mutex.obj
 0002:00006648       $chain$1$?release@scoped_lock@queuing_mutex@tbb@@QEAAXXZ 0000000180028648     queuing_mutex.obj
 0002:00006658       $unwind$?acquire@scoped_lock@queuing_rw_mutex@tbb@@QEAAXAEAV23@_N@Z 0000000180028658     queuing_rw_mutex.obj
 0002:00006658       $unwind$?start_read@reader_writer_lock@interface5@tbb@@AEAAXPEAVscoped_lock_read@123@@Z 0000000180028658     reader_writer_lock.obj
 0002:00006658       $unwind$?acquire_task_pool@generic_scheduler@internal@tbb@@QEBAXXZ 0000000180028658     scheduler.obj
 0002:00006660       $chain$1$?acquire@scoped_lock@queuing_rw_mutex@tbb@@QEAAXAEAV23@_N@Z 0000000180028660     queuing_rw_mutex.obj
 0002:00006678       $chain$2$?acquire@scoped_lock@queuing_rw_mutex@tbb@@QEAAXAEAV23@_N@Z 0000000180028678     queuing_rw_mutex.obj
 0002:0000668c       $chain$3$?acquire@scoped_lock@queuing_rw_mutex@tbb@@QEAAXAEAV23@_N@Z 000000018002868c     queuing_rw_mutex.obj
 0002:0000669c       $chain$4$?acquire@scoped_lock@queuing_rw_mutex@tbb@@QEAAXAEAV23@_N@Z 000000018002869c     queuing_rw_mutex.obj
 0002:000066ac       $unwind$?release@scoped_lock@queuing_rw_mutex@tbb@@QEAAXXZ 00000001800286ac     queuing_rw_mutex.obj
 0002:000066b8       $chain$0$?release@scoped_lock@queuing_rw_mutex@tbb@@QEAAXXZ 00000001800286b8     queuing_rw_mutex.obj
 0002:000066cc       $chain$1$?release@scoped_lock@queuing_rw_mutex@tbb@@QEAAXXZ 00000001800286cc     queuing_rw_mutex.obj
 0002:000066e0       $chain$2$?release@scoped_lock@queuing_rw_mutex@tbb@@QEAAXXZ 00000001800286e0     queuing_rw_mutex.obj
 0002:000066f0       $chain$3$?release@scoped_lock@queuing_rw_mutex@tbb@@QEAAXXZ 00000001800286f0     queuing_rw_mutex.obj
 0002:00006700       $chain$0$?downgrade_to_reader@scoped_lock@queuing_rw_mutex@tbb@@QEAA_NXZ 0000000180028700     queuing_rw_mutex.obj
 0002:00006714       $chain$1$?downgrade_to_reader@scoped_lock@queuing_rw_mutex@tbb@@QEAA_NXZ 0000000180028714     queuing_rw_mutex.obj
 0002:00006724       $unwind$?upgrade_to_writer@scoped_lock@queuing_rw_mutex@tbb@@QEAA_NXZ 0000000180028724     queuing_rw_mutex.obj
 0002:00006730       $chain$5$?upgrade_to_writer@scoped_lock@queuing_rw_mutex@tbb@@QEAA_NXZ 0000000180028730     queuing_rw_mutex.obj
 0002:00006754       $chain$6$?upgrade_to_writer@scoped_lock@queuing_rw_mutex@tbb@@QEAA_NXZ 0000000180028754     queuing_rw_mutex.obj
 0002:00006768       $chain$7$?upgrade_to_writer@scoped_lock@queuing_rw_mutex@tbb@@QEAA_NXZ 0000000180028768     queuing_rw_mutex.obj
 0002:00006778       $unwind$??1scoped_lock_read@reader_writer_lock@interface5@tbb@@QEAA@XZ 0000000180028778     reader_writer_lock.obj
 0002:0000678c       $cppxdata$??1scoped_lock_read@reader_writer_lock@interface5@tbb@@QEAA@XZ 000000018002878c     reader_writer_lock.obj
 0002:00006791       $ip2state$??1scoped_lock_read@reader_writer_lock@interface5@tbb@@QEAA@XZ 0000000180028791     reader_writer_lock.obj
 0002:00006794       $chain$0$?lock@reader_writer_lock@interface5@tbb@@QEAAXXZ 0000000180028794     reader_writer_lock.obj
 0002:000067a8       $chain$2$?lock@reader_writer_lock@interface5@tbb@@QEAAXXZ 00000001800287a8     reader_writer_lock.obj
 0002:000067bc       $unwind$?try_lock@reader_writer_lock@interface5@tbb@@QEAA_NXZ 00000001800287bc     reader_writer_lock.obj
 0002:000067c8       $unwind$?start_write@reader_writer_lock@interface5@tbb@@AEAA_NPEAVscoped_lock@123@@Z 00000001800287c8     reader_writer_lock.obj
 0002:000067e4       $cppxdata$?start_write@reader_writer_lock@interface5@tbb@@AEAA_NPEAVscoped_lock@123@@Z 00000001800287e4     reader_writer_lock.obj
 0002:000067ed       $ip2state$?start_write@reader_writer_lock@interface5@tbb@@AEAA_NPEAVscoped_lock@123@@Z 00000001800287ed     reader_writer_lock.obj
 0002:000067f8       $unwind$?set_next_writer@reader_writer_lock@interface5@tbb@@AEAAXPEAVscoped_lock@123@@Z 00000001800287f8     reader_writer_lock.obj
 0002:00006804       $chain$1$?set_next_writer@reader_writer_lock@interface5@tbb@@AEAAXPEAVscoped_lock@123@@Z 0000000180028804     reader_writer_lock.obj
 0002:0000681c       $chain$2$?set_next_writer@reader_writer_lock@interface5@tbb@@AEAAXPEAVscoped_lock@123@@Z 000000018002881c     reader_writer_lock.obj
 0002:00006830       $chain$3$?set_next_writer@reader_writer_lock@interface5@tbb@@AEAAXPEAVscoped_lock@123@@Z 0000000180028830     reader_writer_lock.obj
 0002:00006840       $unwind$?lock_read@reader_writer_lock@interface5@tbb@@QEAAXXZ 0000000180028840     reader_writer_lock.obj
 0002:00006850       $cppxdata$?lock_read@reader_writer_lock@interface5@tbb@@QEAAXXZ 0000000180028850     reader_writer_lock.obj
 0002:00006859       $stateUnwindMap$?lock_read@reader_writer_lock@interface5@tbb@@QEAAXXZ 0000000180028859     reader_writer_lock.obj
 0002:00006865       $ip2state$?lock_read@reader_writer_lock@interface5@tbb@@QEAAXXZ 0000000180028865     reader_writer_lock.obj
 0002:0000686c       $chain$1$?start_read@reader_writer_lock@interface5@tbb@@AEAAXPEAVscoped_lock_read@123@@Z 000000018002886c     reader_writer_lock.obj
 0002:00006884       $chain$2$?start_read@reader_writer_lock@interface5@tbb@@AEAAXPEAVscoped_lock_read@123@@Z 0000000180028884     reader_writer_lock.obj
 0002:00006898       $chain$3$?start_read@reader_writer_lock@interface5@tbb@@AEAAXPEAVscoped_lock_read@123@@Z 0000000180028898     reader_writer_lock.obj
 0002:000068a8       $chain$4$?start_read@reader_writer_lock@interface5@tbb@@AEAAXPEAVscoped_lock_read@123@@Z 00000001800288a8     reader_writer_lock.obj
 0002:000068bc       $chain$5$?start_read@reader_writer_lock@interface5@tbb@@AEAAXPEAVscoped_lock_read@123@@Z 00000001800288bc     reader_writer_lock.obj
 0002:000068cc       $unwind$?unlock@reader_writer_lock@interface5@tbb@@QEAAXXZ 00000001800288cc     reader_writer_lock.obj
 0002:000068e0       $cppxdata$?unlock@reader_writer_lock@interface5@tbb@@QEAAXXZ 00000001800288e0     reader_writer_lock.obj
 0002:000068e9       $ip2state$?unlock@reader_writer_lock@interface5@tbb@@QEAAXXZ 00000001800288e9     reader_writer_lock.obj
 0002:000068f0       $unwind$?end_write@reader_writer_lock@interface5@tbb@@AEAAXPEAVscoped_lock@123@@Z 00000001800288f0     reader_writer_lock.obj
 0002:00006904       $chain$1$?end_write@reader_writer_lock@interface5@tbb@@AEAAXPEAVscoped_lock@123@@Z 0000000180028904     reader_writer_lock.obj
 0002:00006918       $chain$2$?end_write@reader_writer_lock@interface5@tbb@@AEAAXPEAVscoped_lock@123@@Z 0000000180028918     reader_writer_lock.obj
 0002:00006928       $unwind$?internal_acquire_writer@spin_rw_mutex_v3@tbb@@AEAA_NXZ 0000000180028928     spin_rw_mutex.obj
 0002:00006928       $unwind$?internal_acquire_reader@spin_rw_mutex@tbb@@CAXPEAV12@@Z 0000000180028928     spin_rw_mutex_v2.obj
 0002:00006928       $unwind$?internal_acquire_writer@spin_rw_mutex@tbb@@CA_NPEAV12@@Z 0000000180028928     spin_rw_mutex_v2.obj
 0002:00006934       $chain$0$?internal_upgrade@spin_rw_mutex_v3@tbb@@AEAA_NXZ 0000000180028934     spin_rw_mutex.obj
 0002:00006948       $chain$1$?internal_upgrade@spin_rw_mutex_v3@tbb@@AEAA_NXZ 0000000180028948     spin_rw_mutex.obj
 0002:00006948       $chain$3$?internal_upgrade@spin_rw_mutex_v3@tbb@@AEAA_NXZ 0000000180028948     spin_rw_mutex.obj
 0002:00006958       $chain$2$?internal_upgrade@spin_rw_mutex_v3@tbb@@AEAA_NXZ 0000000180028958     spin_rw_mutex.obj
 0002:0000696c       $chain$0$?acquire@scoped_lock@spin_rw_mutex_v3@tbb@@QEAAXAEAV23@_N@Z 000000018002896c     x86_rtm_rw_mutex.obj
 0002:00006980       $chain$1$?acquire@scoped_lock@spin_rw_mutex_v3@tbb@@QEAAXAEAV23@_N@Z 0000000180028980     x86_rtm_rw_mutex.obj
 0002:00006990       $unwind$?internal_clear@concurrent_vector_base@internal@tbb@@IEAAXP6AXPEAX_K@Z_N@Z 0000000180028990     concurrent_vector_v2.obj
 0002:00006990       $unwind$?internal_upgrade@x86_rtm_rw_mutex@internal@interface8@tbb@@AEAA_NAEAVscoped_lock@1234@@Z 0000000180028990     x86_rtm_rw_mutex.obj
 0002:000069a0       $chain$0$?internal_upgrade@x86_rtm_rw_mutex@internal@interface8@tbb@@AEAA_NAEAVscoped_lock@1234@@Z 00000001800289a0     x86_rtm_rw_mutex.obj
 0002:000069b4       $chain$2$?internal_upgrade@x86_rtm_rw_mutex@internal@interface8@tbb@@AEAA_NAEAVscoped_lock@1234@@Z 00000001800289b4     x86_rtm_rw_mutex.obj
 0002:000069c8       $chain$3$?internal_upgrade@x86_rtm_rw_mutex@internal@interface8@tbb@@AEAA_NAEAVscoped_lock@1234@@Z 00000001800289c8     x86_rtm_rw_mutex.obj
 0002:000069d8       $unwind$??$on_thread_leaving@$00@arena@internal@tbb@@QEAAXXZ 00000001800289d8     arena.obj
 0002:000069d8       $unwind$?destroy_condvar_using_event@internal@tbb@@YAXPEAUcondition_variable_using_event@1interface5@2@@Z 00000001800289d8     condition_variable.obj
 0002:000069e8       $chain$0$?destroy_condvar_using_event@internal@tbb@@YAXPEAUcondition_variable_using_event@1interface5@2@@Z 00000001800289e8     condition_variable.obj
 0002:000069fc       $chain$1$?destroy_condvar_using_event@internal@tbb@@YAXPEAUcondition_variable_using_event@1interface5@2@@Z 00000001800289fc     condition_variable.obj
 0002:00006a0c       $chain$0$?init_condvar_module@internal@tbb@@YAXXZ 0000000180028a0c     condition_variable.obj
 0002:00006a20       $chain$1$?init_condvar_module@internal@tbb@@YAXXZ 0000000180028a20     condition_variable.obj
 0002:00006a30       $chain$1$?internal_initialize_condition_variable@internal@interface5@tbb@@YAXAEATcondvar_impl_t@123@@Z 0000000180028a30     condition_variable.obj
 0002:00006a48       $chain$2$?internal_initialize_condition_variable@internal@interface5@tbb@@YAXAEATcondvar_impl_t@123@@Z 0000000180028a48     condition_variable.obj
 0002:00006a58       $unwind$??$occupy_free_slot@$0A@@arena@internal@tbb@@QEAA_KAEAVgeneric_scheduler@12@@Z 0000000180028a58     arena.obj
 0002:00006a58       $unwind$?internal_condition_variable_wait@internal@interface5@tbb@@YA_NAEATcondvar_impl_t@123@PEAVmutex@3@PEBVinterval_t@tick_count@3@@Z 0000000180028a58     condition_variable.obj
 0002:00006a68       $chain$1$?default_num_threads@governor@internal@tbb@@SAIXZ 0000000180028a68     tbb_thread.obj
 0002:00006a80       $chain$2$?default_num_threads@governor@internal@tbb@@SAIXZ 0000000180028a80     tbb_thread.obj
 0002:00006a90       $chain$0$?join@tbb_thread_v3@internal@tbb@@QEAAXXZ 0000000180028a90     tbb_thread.obj
 0002:00006aa4       $chain$1$?join@tbb_thread_v3@internal@tbb@@QEAAXXZ 0000000180028aa4     tbb_thread.obj
 0002:00006ab4       $unwind$?internal_terminate@task_scheduler_init@tbb@@AEAA_N_N@Z 0000000180028ab4     governor.obj
 0002:00006ab4       $unwind$?mandatory_concurrency_disable@market@internal@tbb@@QEAAXPEAVarena@23@@Z 0000000180028ab4     market.obj
 0002:00006ab4       $unwind$?internal_start@tbb_thread_v3@internal@tbb@@AEAAXP6AIPEAX@Z0@Z 0000000180028ab4     tbb_thread.obj
 0002:00006ac4       $unwind$?hardware_concurrency@tbb_thread_v3@internal@tbb@@SAIXZ 0000000180028ac4     tbb_thread.obj
 0002:00006ad4       $cppxdata$?hardware_concurrency@tbb_thread_v3@internal@tbb@@SAIXZ 0000000180028ad4     tbb_thread.obj
 0002:00006ad9       $ip2state$?hardware_concurrency@tbb_thread_v3@internal@tbb@@SAIXZ 0000000180028ad9     tbb_thread.obj
 0002:00006adc       $unwind$?thread_sleep_v3@internal@tbb@@YAXAEBVinterval_t@tick_count@2@@Z 0000000180028adc     tbb_thread.obj
 0002:00006af4       $chain$1$?thread_sleep_v3@internal@tbb@@YAXAEBVinterval_t@tick_count@2@@Z 0000000180028af4     tbb_thread.obj
 0002:00006b0c       $chain$2$?thread_sleep_v3@internal@tbb@@YAXAEBVinterval_t@tick_count@2@@Z 0000000180028b0c     tbb_thread.obj
 0002:00006b1c       $unwind$fprintf            0000000180028b1c     private_server.obj
 0002:00006b28       $unwind$?launch@thread_monitor@internal@rml@@SAPEAXP6AIPEAX@Z0_KPEB_K@Z 0000000180028b28     private_server.obj
 0002:00006b40       $unwind$?request_close_connection@private_server@rml@internal@tbb@@UEAAX_N@Z 0000000180028b40     private_server.obj
 0002:00006b48       $chain$1$?request_close_connection@private_server@rml@internal@tbb@@UEAAX_N@Z 0000000180028b48     private_server.obj
 0002:00006b60       $chain$5$?request_close_connection@private_server@rml@internal@tbb@@UEAAX_N@Z 0000000180028b60     private_server.obj
 0002:00006b80       $chain$6$?request_close_connection@private_server@rml@internal@tbb@@UEAAX_N@Z 0000000180028b80     private_server.obj
 0002:00006b90       $chain$7$?request_close_connection@private_server@rml@internal@tbb@@UEAAX_N@Z 0000000180028b90     private_server.obj
 0002:00006ba0       $unwind$?thread_routine@private_worker@rml@internal@tbb@@CAIPEAX@Z 0000000180028ba0     private_server.obj
 0002:00006bb4       $chain$2$?run@private_worker@rml@internal@tbb@@AEAAXXZ 0000000180028bb4     private_server.obj
 0002:00006bd0       $chain$3$?run@private_worker@rml@internal@tbb@@AEAAXXZ 0000000180028bd0     private_server.obj
 0002:00006be4       $chain$4$?run@private_worker@rml@internal@tbb@@AEAAXXZ 0000000180028be4     private_server.obj
 0002:00006bf4       $chain$5$?run@private_worker@rml@internal@tbb@@AEAAXXZ 0000000180028bf4     private_server.obj
 0002:00006c04       $unwind$??0private_server@rml@internal@tbb@@QEAA@AEAVtbb_client@123@@Z 0000000180028c04     private_server.obj
 0002:00006c28       $cppxdata$??0private_server@rml@internal@tbb@@QEAA@AEAVtbb_client@123@@Z 0000000180028c28     private_server.obj
 0002:00006c31       $stateUnwindMap$??0private_server@rml@internal@tbb@@QEAA@AEAVtbb_client@123@@Z 0000000180028c31     private_server.obj
 0002:00006c37       $ip2state$??0private_server@rml@internal@tbb@@QEAA@AEAVtbb_client@123@@Z 0000000180028c37     private_server.obj
 0002:00006c40       $unwind$??_Gprivate_server@rml@internal@tbb@@EEAAPEAXI@Z 0000000180028c40     private_server.obj
 0002:00006c5c       $cppxdata$??_Gprivate_server@rml@internal@tbb@@EEAAPEAXI@Z 0000000180028c5c     private_server.obj
 0002:00006c65       $ip2state$??_Gprivate_server@rml@internal@tbb@@EEAAPEAXI@Z 0000000180028c65     private_server.obj
 0002:00006c68       $unwind$?wake_some@private_server@rml@internal@tbb@@AEAAXH@Z 0000000180028c68     private_server.obj
 0002:00006c80       $unwind$_snprintf          0000000180028c80     tbb_misc.obj
 0002:00006c90       $unwind$?runtime_warning@internal@tbb@@YAXPEBDZZ 0000000180028c90     tbb_misc.obj
 0002:00006ca4       $unwind$?handle_perror@internal@tbb@@YAXHPEBD@Z 0000000180028ca4     tbb_misc.obj
 0002:00006cb8       $unwind$?handle_win_error@internal@tbb@@YAXH@Z 0000000180028cb8     tbb_misc.obj
 0002:00006cc8       $unwind$?throw_bad_last_alloc_exception_v4@internal@tbb@@YAXXZ 0000000180028cc8     tbb_misc.obj
 0002:00006cc8       $unwind$?__scrt_throw_std_bad_alloc@@YAXXZ 0000000180028cc8     MSVCRT:throw_bad_alloc.obj
 0002:00006cc8       $unwind$?__scrt_throw_std_bad_array_new_length@@YAXXZ 0000000180028cc8     MSVCRT:throw_bad_alloc.obj
 0002:00006cd0       $unwind$?throw_exception_v4@internal@tbb@@YAXW4exception_id@12@@Z 0000000180028cd0     tbb_misc.obj
 0002:00006cd8       $unwind$?PrintExtraVersionInfo@internal@tbb@@YAXPEBD0ZZ 0000000180028cd8     tbb_misc.obj
 0002:00006cec       $chain$0$?PrintExtraVersionInfo@internal@tbb@@YAXPEBD0ZZ 0000000180028cec     tbb_misc.obj
 0002:00006d00       $chain$1$?PrintExtraVersionInfo@internal@tbb@@YAXPEBD0ZZ 0000000180028d00     tbb_misc.obj
 0002:00006d10       $unwind$?initialize_hardware_concurrency_info@internal@tbb@@YAXXZ 0000000180028d10     tbb_misc_ex.obj
 0002:00006d28       $chain$1$?initialize_hardware_concurrency_info@internal@tbb@@YAXXZ 0000000180028d28     tbb_misc_ex.obj
 0002:00006d40       $chain$2$?initialize_hardware_concurrency_info@internal@tbb@@YAXXZ 0000000180028d40     tbb_misc_ex.obj
 0002:00006d54       $chain$3$?initialize_hardware_concurrency_info@internal@tbb@@YAXXZ 0000000180028d54     tbb_misc_ex.obj
 0002:00006d64       $chain$4$?initialize_hardware_concurrency_info@internal@tbb@@YAXXZ 0000000180028d64     tbb_misc_ex.obj
 0002:00006d74       $unwind$?resize@affinity_partitioner_base_v3@internal@tbb@@AEAAXI@Z 0000000180028d74     task.obj
 0002:00006d84       $chain$1$?resize@affinity_partitioner_base_v3@internal@tbb@@AEAAXI@Z 0000000180028d84     task.obj
 0002:00006d9c       $chain$2$?resize@affinity_partitioner_base_v3@internal@tbb@@AEAAXI@Z 0000000180028d9c     task.obj
 0002:00006dac       $unwind$?destroy@task_base@internal@interface5@tbb@@SAXAEAVtask@4@@Z 0000000180028dac     task.obj
 0002:00006dac       $unwind$?destroy@task@tbb@@QEAAXAEAV12@@Z 0000000180028dac     task_v2.obj
 0002:00006dc0       $chain$0$?destroy@task_base@internal@interface5@tbb@@SAXAEAVtask@4@@Z 0000000180028dc0     task.obj
 0002:00006dd4       $chain$1$?destroy@task_base@internal@interface5@tbb@@SAXAEAVtask@4@@Z 0000000180028dd4     task.obj
 0002:00006de4       $unwind$?throw_self@captured_exception@tbb@@UEAAXXZ 0000000180028de4     task_group_context.obj
 0002:00006dec       $unwind$??_Gcaptured_exception@tbb@@UEAAPEAXI@Z 0000000180028dec     task_group_context.obj
 0002:00006e00       $cppxdata$??_Gcaptured_exception@tbb@@UEAAPEAXI@Z 0000000180028e00     task_group_context.obj
 0002:00006e09       $ip2state$??_Gcaptured_exception@tbb@@UEAAPEAXI@Z 0000000180028e09     task_group_context.obj
 0002:00006e10       $unwind$??_Gtbb_exception@tbb@@UEAAPEAXI@Z 0000000180028e10     task_group_context.obj
 0002:00006e24       $cppxdata$??_Gtbb_exception@tbb@@UEAAPEAXI@Z 0000000180028e24     task_group_context.obj
 0002:00006e2d       $ip2state$??_Gtbb_exception@tbb@@UEAAPEAXI@Z 0000000180028e2d     task_group_context.obj
 0002:00006e30       $chain$1$?duplicate_string@tbb@@YAPEADPEBD@Z 0000000180028e30     task_group_context.obj
 0002:00006e48       $chain$2$?duplicate_string@tbb@@YAPEADPEBD@Z 0000000180028e48     task_group_context.obj
 0002:00006e58       $unwind$?allocate@tbb_exception_ptr@internal@tbb@@SAPEAV123@AEAVcaptured_exception@3@@Z 0000000180028e58     task_group_context.obj
 0002:00006e64       $chain$2$?allocate@tbb_exception_ptr@internal@tbb@@SAPEAV123@AEAVcaptured_exception@3@@Z 0000000180028e64     task_group_context.obj
 0002:00006e80       $chain$3$?allocate@tbb_exception_ptr@internal@tbb@@SAPEAV123@AEAVcaptured_exception@3@@Z 0000000180028e80     task_group_context.obj
 0002:00006e94       $chain$4$?allocate@tbb_exception_ptr@internal@tbb@@SAPEAV123@AEAVcaptured_exception@3@@Z 0000000180028e94     task_group_context.obj
 0002:00006ea4       $unwind$??1task_group_context@tbb@@QEAA@XZ 0000000180028ea4     task_group_context.obj
 0002:00006ec0       $cppxdata$??1task_group_context@tbb@@QEAA@XZ 0000000180028ec0     task_group_context.obj
 0002:00006ec5       $ip2state$??1task_group_context@tbb@@QEAA@XZ 0000000180028ec5     task_group_context.obj
 0002:00006ecc       $unwind$?init@task_group_context@tbb@@IEAAXXZ 0000000180028ecc     task_group_context.obj
 0002:00006ed8       $chain$2$?init@task_group_context@tbb@@IEAAXXZ 0000000180028ed8     task_group_context.obj
 0002:00006ef4       $chain$3$?init@task_group_context@tbb@@IEAAXXZ 0000000180028ef4     task_group_context.obj
 0002:00006f04       $unwind$?register_with@task_group_context@tbb@@QEAAXPEAVgeneric_scheduler@internal@2@@Z 0000000180028f04     task_group_context.obj
 0002:00006f14       $chain$1$?register_with@task_group_context@tbb@@QEAAXPEAVgeneric_scheduler@internal@2@@Z 0000000180028f14     task_group_context.obj
 0002:00006f2c       $chain$2$?register_with@task_group_context@tbb@@QEAAXPEAVgeneric_scheduler@internal@2@@Z 0000000180028f2c     task_group_context.obj
 0002:00006f40       $chain$3$?register_with@task_group_context@tbb@@QEAAXPEAVgeneric_scheduler@internal@2@@Z 0000000180028f40     task_group_context.obj
 0002:00006f50       $chain$1$?bind_to@task_group_context@tbb@@QEAAXPEAVgeneric_scheduler@internal@2@@Z 0000000180028f50     task_group_context.obj
 0002:00006f68       $chain$3$?bind_to@task_group_context@tbb@@QEAAXPEAVgeneric_scheduler@internal@2@@Z 0000000180028f68     task_group_context.obj
 0002:00006f7c       $chain$4$?bind_to@task_group_context@tbb@@QEAAXPEAVgeneric_scheduler@internal@2@@Z 0000000180028f7c     task_group_context.obj
 0002:00006f8c       $unwind$?cancel_group_execution@task_group_context@tbb@@QEAA_NXZ 0000000180028f8c     task_group_context.obj
 0002:00006f98       $chain$0$?cancel_group_execution@task_group_context@tbb@@QEAA_NXZ 0000000180028f98     task_group_context.obj
 0002:00006fac       $chain$1$?cancel_group_execution@task_group_context@tbb@@QEAA_NXZ 0000000180028fac     task_group_context.obj
 0002:00006fc0       $chain$2$?cancel_group_execution@task_group_context@tbb@@QEAA_NXZ 0000000180028fc0     task_group_context.obj
 0002:00006fd0       $chain$3$?cancel_group_execution@task_group_context@tbb@@QEAA_NXZ 0000000180028fd0     task_group_context.obj
 0002:00006fe0       $unwind$?register_pending_exception@task_group_context@tbb@@QEAAXXZ 0000000180028fe0     task_group_context.obj
 0002:00006ff0       $cppxdata$?register_pending_exception@task_group_context@tbb@@QEAAXXZ 0000000180028ff0     task_group_context.obj
 0002:00006ffd       $stateUnwindMap$?register_pending_exception@task_group_context@tbb@@QEAAXXZ 0000000180028ffd     task_group_context.obj
 0002:00007005       $tryMap$?register_pending_exception@task_group_context@tbb@@QEAAXXZ 0000000180029005     task_group_context.obj
 0002:0000700d       $handlerMap$?register_pending_exception@task_group_context@tbb@@QEAAXXZ 000000018002900d     task_group_context.obj
 0002:00007030       $unwind$?catch$14@?0??register_pending_exception@task_group_context@tbb@@QEAAXXZ@4HA 0000000180029030     task_group_context.obj
 0002:00007044       $cppxdata$?catch$14@?0??register_pending_exception@task_group_context@tbb@@QEAAXXZ@4HA 0000000180029044     task_group_context.obj
 0002:0000704e       $stateUnwindMap$?catch$14@?0??register_pending_exception@task_group_context@tbb@@QEAAXXZ@4HA 000000018002904e     task_group_context.obj
 0002:0000704e       $stateUnwindMap$?catch$15@?0??register_pending_exception@task_group_context@tbb@@QEAAXXZ@4HA 000000018002904e     task_group_context.obj
 0002:0000704e       $stateUnwindMap$?catch$16@?0??register_pending_exception@task_group_context@tbb@@QEAAXXZ@4HA 000000018002904e     task_group_context.obj
 0002:00007056       $ip2state$?catch$14@?0??register_pending_exception@task_group_context@tbb@@QEAAXXZ@4HA 0000000180029056     task_group_context.obj
 0002:00007064       $unwind$?catch$15@?0??register_pending_exception@task_group_context@tbb@@QEAAXXZ@4HA 0000000180029064     task_group_context.obj
 0002:0000707c       $cppxdata$?catch$15@?0??register_pending_exception@task_group_context@tbb@@QEAAXXZ@4HA 000000018002907c     task_group_context.obj
 0002:00007086       $ip2state$?catch$15@?0??register_pending_exception@task_group_context@tbb@@QEAAXXZ@4HA 0000000180029086     task_group_context.obj
 0002:00007090       $unwind$?catch$16@?0??register_pending_exception@task_group_context@tbb@@QEAAXXZ@4HA 0000000180029090     task_group_context.obj
 0002:000070a4       $cppxdata$?catch$16@?0??register_pending_exception@task_group_context@tbb@@QEAAXXZ@4HA 00000001800290a4     task_group_context.obj
 0002:000070ae       $ip2state$?catch$16@?0??register_pending_exception@task_group_context@tbb@@QEAAXXZ@4HA 00000001800290ae     task_group_context.obj
 0002:000070b8       $unwind$?_Growmap@?$deque@PEAVtask@tbb@@V?$tbb_allocator@PEAVtask@tbb@@@2@@std@@AEAAX_K@Z 00000001800290b8     arena.obj
 0002:000070b8       $unwind$?set_priority@task_group_context@tbb@@QEAAXW4priority_t@2@@Z 00000001800290b8     task_group_context.obj
 0002:000070c4       $chain$0$?set_priority@task_group_context@tbb@@QEAAXW4priority_t@2@@Z 00000001800290c4     task_group_context.obj
 0002:000070d8       $chain$3$?set_priority@task_group_context@tbb@@QEAAXW4priority_t@2@@Z 00000001800290d8     task_group_context.obj
 0002:000070f4       $chain$4$?set_priority@task_group_context@tbb@@QEAAXW4priority_t@2@@Z 00000001800290f4     task_group_context.obj
 0002:00007104       $chain$5$?set_priority@task_group_context@tbb@@QEAAXW4priority_t@2@@Z 0000000180029104     task_group_context.obj
 0002:00007114       $chain$1$?one_time_init@governor@internal@tbb@@SAXXZ 0000000180029114     governor.obj
 0002:0000712c       $chain$3$?one_time_init@governor@internal@tbb@@SAXXZ 000000018002912c     governor.obj
 0002:00007144       $chain$4$?one_time_init@governor@internal@tbb@@SAXXZ 0000000180029144     governor.obj
 0002:00007154       $unwind$?initialization_impl@numa_topology@internal@tbb@@YAXXZ 0000000180029154     governor.obj
 0002:00007178       $cppxdata$?initialization_impl@numa_topology@internal@tbb@@YAXXZ 0000000180029178     governor.obj
 0002:00007181       $stateUnwindMap$?initialization_impl@numa_topology@internal@tbb@@YAXXZ 0000000180029181     governor.obj
 0002:00007187       $ip2state$?initialization_impl@numa_topology@internal@tbb@@YAXXZ 0000000180029187     governor.obj
 0002:00007190       $chain$1$?initialize@numa_topology@internal@tbb@@YAXXZ 0000000180029190     governor.obj
 0002:000071a8       $chain$3$?initialize@numa_topology@internal@tbb@@YAXXZ 00000001800291a8     governor.obj
 0002:000071c0       $chain$4$?initialize@numa_topology@internal@tbb@@YAXXZ 00000001800291c0     governor.obj
 0002:000071d0       $unwind$?initialize@task_scheduler_init@tbb@@QEAAXH_K@Z 00000001800291d0     governor.obj
 0002:000071e8       $unwind$?global_market@market@internal@tbb@@CAAEAV123@_NI_K@Z 00000001800291e8     market.obj
 0002:0000720c       $cppxdata$?global_market@market@internal@tbb@@CAAEAV123@_NI_K@Z 000000018002920c     market.obj
 0002:00007215       $ip2state$?global_market@market@internal@tbb@@CAAEAV123@_NI_K@Z 0000000180029215     market.obj
 0002:0000721c       $unwind$?create_arena@market@internal@tbb@@SAPEAVarena@23@HH_K@Z 000000018002921c     market.obj
 0002:00007238       $unwind$?arena_in_need@market@internal@tbb@@AEAAPEAVarena@23@PEAV423@@Z 0000000180029238     market.obj
 0002:00007238       $unwind$?enable_mandatory_concurrency@market@internal@tbb@@QEAAXPEAVarena@23@@Z 0000000180029238     market.obj
 0002:00007238       $unwind$?insert@observer_list@internal@tbb@@QEAAXPEAVobserver_proxy@23@@Z 0000000180029238     observer_proxy.obj
 0002:00007238       $unwind$?remove_ref@observer_list@internal@tbb@@QEAAXPEAVobserver_proxy@23@@Z 0000000180029238     observer_proxy.obj
 0002:00007244       $unwind$?update_allotment@market@internal@tbb@@AEAAX_J@Z 0000000180029244     market.obj
 0002:0000724c       $chain$0$?update_allotment@market@internal@tbb@@AEAAX_J@Z 000000018002924c     market.obj
 0002:00007260       $chain$3$?update_allotment@market@internal@tbb@@AEAAX_J@Z 0000000180029260     market.obj
 0002:0000727c       $chain$4$?update_allotment@market@internal@tbb@@AEAAX_J@Z 000000018002927c     market.obj
 0002:0000728c       $chain$5$?update_allotment@market@internal@tbb@@AEAAX_J@Z 000000018002928c     market.obj
 0002:0000729c       $unwind$?adjust_demand@market@internal@tbb@@QEAAXAEAVarena@23@H@Z 000000018002929c     market.obj
 0002:000072a8       $chain$1$?adjust_demand@market@internal@tbb@@QEAAXAEAVarena@23@H@Z 00000001800292a8     market.obj
 0002:000072c0       $chain$4$?adjust_demand@market@internal@tbb@@QEAAXAEAVarena@23@H@Z 00000001800292c0     market.obj
 0002:000072dc       $chain$5$?adjust_demand@market@internal@tbb@@QEAAXAEAVarena@23@H@Z 00000001800292dc     market.obj
 0002:000072f0       $chain$6$?adjust_demand@market@internal@tbb@@QEAAXAEAVarena@23@H@Z 00000001800292f0     market.obj
 0002:00007300       $chain$7$?adjust_demand@market@internal@tbb@@QEAAXAEAVarena@23@H@Z 0000000180029300     market.obj
 0002:00007310       $unwind$?cleanup@market@internal@tbb@@EEAAXAEAVjob@rml@@@Z 0000000180029310     market.obj
 0002:00007320       $chain$0$?cleanup@market@internal@tbb@@EEAAXAEAVjob@rml@@@Z 0000000180029320     market.obj
 0002:00007334       $chain$1$?cleanup@market@internal@tbb@@EEAAXAEAVjob@rml@@@Z 0000000180029334     market.obj
 0002:00007344       $unwind$?update_arena_top_priority@market@internal@tbb@@AEAAXAEAVarena@23@_J@Z 0000000180029344     market.obj
 0002:00007354       $chain$2$?update_arena_priority@market@internal@tbb@@QEAA_NAEAVarena@23@_J@Z 0000000180029354     market.obj
 0002:00007370       $chain$3$?update_arena_priority@market@internal@tbb@@QEAA_NAEAVarena@23@_J@Z 0000000180029370     market.obj
 0002:00007370       $chain$9$?update_arena_priority@market@internal@tbb@@QEAA_NAEAVarena@23@_J@Z 0000000180029370     market.obj
 0002:00007380       $chain$4$?update_arena_priority@market@internal@tbb@@QEAA_NAEAVarena@23@_J@Z 0000000180029380     market.obj
 0002:0000739c       $chain$6$?update_arena_priority@market@internal@tbb@@QEAA_NAEAVarena@23@_J@Z 000000018002939c     market.obj
 0002:000073b4       $chain$7$?update_arena_priority@market@internal@tbb@@QEAA_NAEAVarena@23@_J@Z 00000001800293b4     market.obj
 0002:000073c8       $unwind$?rethrow_exception@std@@YAXVexception_ptr@1@@Z 00000001800293c8     arena.obj
 0002:000073d8       $cppxdata$?rethrow_exception@std@@YAXVexception_ptr@1@@Z 00000001800293d8     arena.obj
 0002:000073e1       $stateUnwindMap$?rethrow_exception@std@@YAXVexception_ptr@1@@Z 00000001800293e1     arena.obj
 0002:000073e8       $ip2state$?rethrow_exception@std@@YAXVexception_ptr@1@@Z 00000001800293e8     arena.obj
 0002:000073ec       $unwind$??_Gtask_scheduler_observer_v3@internal@tbb@@UEAAPEAXI@Z 00000001800293ec     arena.obj
 0002:00007400       $cppxdata$??_Gtask_scheduler_observer_v3@internal@tbb@@UEAAPEAXI@Z 0000000180029400     arena.obj
 0002:00007409       $ip2state$??_Gtask_scheduler_observer_v3@internal@tbb@@UEAAPEAXI@Z 0000000180029409     arena.obj
 0002:0000740c       $unwind$??1task_scheduler_observer@interface6@tbb@@UEAA@XZ 000000018002940c     arena.obj
 0002:0000741c       $cppxdata$??1task_scheduler_observer@interface6@tbb@@UEAA@XZ 000000018002941c     arena.obj
 0002:00007425       $ip2state$??1task_scheduler_observer@interface6@tbb@@UEAA@XZ 0000000180029425     arena.obj
 0002:0000742c       $unwind$??_Gtask_scheduler_observer@interface6@tbb@@UEAAPEAXI@Z 000000018002942c     arena.obj
 0002:00007440       $cppxdata$??_Gtask_scheduler_observer@interface6@tbb@@UEAAPEAXI@Z 0000000180029440     arena.obj
 0002:00007449       $stateUnwindMap$??_Gtask_scheduler_observer@interface6@tbb@@UEAAPEAXI@Z 0000000180029449     arena.obj
 0002:00007454       $ip2state$??_Gtask_scheduler_observer@interface6@tbb@@UEAAPEAXI@Z 0000000180029454     arena.obj
 0002:0000745c       $unwind$?notify_entry_observers@observer_list@internal@tbb@@QEAAXAEAPEAVobserver_proxy@23@_N@Z 000000018002945c     arena.obj
 0002:00007480       $cppxdata$?notify_entry_observers@observer_list@internal@tbb@@QEAAXAEAPEAVobserver_proxy@23@_N@Z 0000000180029480     arena.obj
 0002:00007489       $stateUnwindMap$?notify_entry_observers@observer_list@internal@tbb@@QEAAXAEAPEAVobserver_proxy@23@_N@Z 0000000180029489     arena.obj
 0002:00007489       $stateUnwindMap$?notify_exit_observers@observer_list@internal@tbb@@QEAAXAEAPEAVobserver_proxy@23@_N@Z 0000000180029489     arena.obj
 0002:00007490       $ip2state$?notify_entry_observers@observer_list@internal@tbb@@QEAAXAEAPEAVobserver_proxy@23@_N@Z 0000000180029490     arena.obj
 0002:00007498       $unwind$?notify_exit_observers@observer_list@internal@tbb@@QEAAXAEAPEAVobserver_proxy@23@_N@Z 0000000180029498     arena.obj
 0002:000074bc       $cppxdata$?notify_exit_observers@observer_list@internal@tbb@@QEAAXAEAPEAVobserver_proxy@23@_N@Z 00000001800294bc     arena.obj
 0002:000074c5       $ip2state$?notify_exit_observers@observer_list@internal@tbb@@QEAAXAEAPEAVobserver_proxy@23@_N@Z 00000001800294c5     arena.obj
 0002:000074d0       $chain$2$?notify_one@concurrent_monitor@internal@tbb@@QEAAXXZ 00000001800294d0     arena.obj
 0002:000074ec       $chain$3$?notify_one@concurrent_monitor@internal@tbb@@QEAAXXZ 00000001800294ec     arena.obj
 0002:00007500       $chain$4$?notify_one@concurrent_monitor@internal@tbb@@QEAAXXZ 0000000180029500     arena.obj
 0002:00007510       $unwind$??_Gnuma_binding_observer@internal@tbb@@UEAAPEAXI@Z 0000000180029510     arena.obj
 0002:00007524       $cppxdata$??_Gnuma_binding_observer@internal@tbb@@UEAAPEAXI@Z 0000000180029524     arena.obj
 0002:0000752d       $stateUnwindMap$??_Gnuma_binding_observer@internal@tbb@@UEAAPEAXI@Z 000000018002952d     arena.obj
 0002:0000753d       $ip2state$??_Gnuma_binding_observer@internal@tbb@@UEAAPEAXI@Z 000000018002953d     arena.obj
 0002:00007544       $unwind$?occupy_free_slot_in_range@arena@internal@tbb@@QEAA_KAEAVgeneric_scheduler@23@_K1@Z 0000000180029544     arena.obj
 0002:0000754c       $chain$1$?process@arena@internal@tbb@@QEAAXAEAVgeneric_scheduler@23@@Z 000000018002954c     arena.obj
 0002:00007564       $chain$3$?process@arena@internal@tbb@@QEAAXAEAVgeneric_scheduler@23@@Z 0000000180029564     arena.obj
 0002:0000757c       $chain$4$?process@arena@internal@tbb@@QEAAXAEAVgeneric_scheduler@23@@Z 000000018002957c     arena.obj
 0002:00007590       $chain$5$?process@arena@internal@tbb@@QEAAXAEAVgeneric_scheduler@23@@Z 0000000180029590     arena.obj
 0002:000075a0       $chain$6$?process@arena@internal@tbb@@QEAAXAEAVgeneric_scheduler@23@@Z 00000001800295a0     arena.obj
 0002:000075b0       $unwind$??0arena@internal@tbb@@QEAA@AEAVmarket@12@II@Z 00000001800295b0     arena.obj
 0002:000075d0       $cppxdata$??0arena@internal@tbb@@QEAA@AEAVmarket@12@II@Z 00000001800295d0     arena.obj
 0002:000075d9       $stateUnwindMap$??0arena@internal@tbb@@QEAA@AEAVmarket@12@II@Z 00000001800295d9     arena.obj
 0002:000075e6       $ip2state$??0arena@internal@tbb@@QEAA@AEAVmarket@12@II@Z 00000001800295e6     arena.obj
 0002:000075f4       $unwind$??1nested_arena_context@internal@tbb@@QEAA@XZ 00000001800295f4     arena.obj
 0002:0000760c       $cppxdata$??1nested_arena_context@internal@tbb@@QEAA@XZ 000000018002960c     arena.obj
 0002:00007611       $ip2state$??1nested_arena_context@internal@tbb@@QEAA@XZ 0000000180029611     arena.obj
 0002:00007614       $unwind$??1?$context_guard_helper@$0A@@internal@tbb@@QEAA@XZ 0000000180029614     arena.obj
 0002:00007614       $unwind$??1auto_empty_task@internal@tbb@@QEAA@XZ 0000000180029614     arena.obj
 0002:00007620       $cppxdata$??1?$context_guard_helper@$0A@@internal@tbb@@QEAA@XZ 0000000180029620     arena.obj
 0002:00007620       $cppxdata$??1auto_empty_task@internal@tbb@@QEAA@XZ 0000000180029620     arena.obj
 0002:00007625       $ip2state$??1?$context_guard_helper@$0A@@internal@tbb@@QEAA@XZ 0000000180029625     arena.obj
 0002:00007625       $ip2state$??1auto_empty_task@internal@tbb@@QEAA@XZ 0000000180029625     arena.obj
 0002:00007628       $unwind$?internal_initialize@task_arena_base@internal@interface7@tbb@@IEAAXXZ 0000000180029628     arena.obj
 0002:00007648       $cppxdata$?internal_initialize@task_arena_base@internal@interface7@tbb@@IEAAXXZ 0000000180029648     arena.obj
 0002:00007651       $stateUnwindMap$?internal_initialize@task_arena_base@internal@interface7@tbb@@IEAAXXZ 0000000180029651     arena.obj
 0002:0000765d       $ip2state$?internal_initialize@task_arena_base@internal@interface7@tbb@@IEAAXXZ 000000018002965d     arena.obj
 0002:00007668       $unwind$?internal_terminate@task_arena_base@internal@interface7@tbb@@IEAAXXZ 0000000180029668     arena.obj
 0002:00007670       $chain$4$?internal_terminate@task_arena_base@internal@interface7@tbb@@IEAAXXZ 0000000180029670     arena.obj
 0002:00007694       $chain$5$?internal_terminate@task_arena_base@internal@interface7@tbb@@IEAAXXZ 0000000180029694     arena.obj
 0002:000076b0       $chain$6$?internal_terminate@task_arena_base@internal@interface7@tbb@@IEAAXXZ 00000001800296b0     arena.obj
 0002:000076c8       $chain$7$?internal_terminate@task_arena_base@internal@interface7@tbb@@IEAAXXZ 00000001800296c8     arena.obj
 0002:000076d8       $unwind$?execute@delegated_task@internal@interface7@tbb@@EEAAPEAVtask@4@XZ 00000001800296d8     arena.obj
 0002:000076f8       $cppxdata$?execute@delegated_task@internal@interface7@tbb@@EEAAPEAVtask@4@XZ 00000001800296f8     arena.obj
 0002:00007701       $stateUnwindMap$?execute@delegated_task@internal@interface7@tbb@@EEAAPEAVtask@4@XZ 0000000180029701     arena.obj
 0002:00007708       $ip2state$?execute@delegated_task@internal@interface7@tbb@@EEAAPEAVtask@4@XZ 0000000180029708     arena.obj
 0002:0000770c       $unwind$??_Gdelegated_task@internal@interface7@tbb@@EEAAPEAXI@Z 000000018002970c     arena.obj
 0002:00007714       $chain$2$??_Gdelegated_task@internal@interface7@tbb@@EEAAPEAXI@Z 0000000180029714     arena.obj
 0002:00007730       $chain$3$??_Gdelegated_task@internal@interface7@tbb@@EEAAPEAXI@Z 0000000180029730     arena.obj
 0002:00007744       $chain$4$??_Gdelegated_task@internal@interface7@tbb@@EEAAPEAXI@Z 0000000180029744     arena.obj
 0002:00007758       $chain$5$??_Gdelegated_task@internal@interface7@tbb@@EEAAPEAXI@Z 0000000180029758     arena.obj
 0002:00007768       $chain$6$??_Gdelegated_task@internal@interface7@tbb@@EEAAPEAXI@Z 0000000180029768     arena.obj
 0002:00007778       $chain$7$??_Gdelegated_task@internal@interface7@tbb@@EEAAPEAXI@Z 0000000180029778     arena.obj
 0002:00007788       $unwind$?internal_execute@task_arena_base@internal@interface7@tbb@@IEBAXAEAVdelegate_base@234@@Z 0000000180029788     arena.obj
 0002:000077b0       $cppxdata$?internal_execute@task_arena_base@internal@interface7@tbb@@IEBAXAEAVdelegate_base@234@@Z 00000001800297b0     arena.obj
 0002:000077bd       $stateUnwindMap$?internal_execute@task_arena_base@internal@interface7@tbb@@IEBAXAEAVdelegate_base@234@@Z 00000001800297bd     arena.obj
 0002:000077fb       $tryMap$?internal_execute@task_arena_base@internal@interface7@tbb@@IEBAXAEAVdelegate_base@234@@Z 00000001800297fb     arena.obj
 0002:00007803       $handlerMap$?internal_execute@task_arena_base@internal@interface7@tbb@@IEBAXAEAVdelegate_base@234@@Z 0000000180029803     arena.obj
 0002:0000780a       $ip2state$?internal_execute@task_arena_base@internal@interface7@tbb@@IEBAXAEAVdelegate_base@234@@Z 000000018002980a     arena.obj
 0002:00007824       $unwind$?catch$11@?0??internal_execute@task_arena_base@internal@interface7@tbb@@IEBAXAEAVdelegate_base@234@@Z@4HA 0000000180029824     arena.obj
 0002:00007834       $cppxdata$?catch$11@?0??internal_execute@task_arena_base@internal@interface7@tbb@@IEBAXAEAVdelegate_base@234@@Z@4HA 0000000180029834     arena.obj
 0002:0000783e       $stateUnwindMap$?catch$11@?0??internal_execute@task_arena_base@internal@interface7@tbb@@IEBAXAEAVdelegate_base@234@@Z@4HA 000000018002983e     arena.obj
 0002:00007847       $ip2state$?catch$11@?0??internal_execute@task_arena_base@internal@interface7@tbb@@IEBAXAEAVdelegate_base@234@@Z@4HA 0000000180029847     arena.obj
 0002:0000784c       $unwind$?internal_wait@task_arena_base@internal@interface7@tbb@@IEBAXXZ 000000018002984c     arena.obj
 0002:00007868       $cppxdata$?internal_wait@task_arena_base@internal@interface7@tbb@@IEBAXXZ 0000000180029868     arena.obj
 0002:00007871       $stateUnwindMap$?internal_wait@task_arena_base@internal@interface7@tbb@@IEBAXXZ 0000000180029871     arena.obj
 0002:0000787f       $ip2state$?internal_wait@task_arena_base@internal@interface7@tbb@@IEBAXXZ 000000018002987f     arena.obj
 0002:0000788c       $unwind$?isolate_within_arena@internal@interface7@tbb@@YAXAEAVdelegate_base@123@_J@Z 000000018002988c     arena.obj
 0002:000078a8       $cppxdata$?isolate_within_arena@internal@interface7@tbb@@YAXAEAVdelegate_base@123@_J@Z 00000001800298a8     arena.obj
 0002:000078b1       $stateUnwindMap$?isolate_within_arena@internal@interface7@tbb@@YAXAEAVdelegate_base@123@_J@Z 00000001800298b1     arena.obj
 0002:000078b8       $ip2state$?isolate_within_arena@internal@interface7@tbb@@YAXAEAVdelegate_base@123@_J@Z 00000001800298b8     arena.obj
 0002:000078c0       $unwind$?push@?$task_stream@$02@internal@tbb@@QEAAXPEAVtask@3@HAEAVFastRandom@23@@Z 00000001800298c0     arena.obj
 0002:000078e0       $cppxdata$?push@?$task_stream@$02@internal@tbb@@QEAAXPEAVtask@3@HAEAVFastRandom@23@@Z 00000001800298e0     arena.obj
 0002:000078e9       $ip2state$?push@?$task_stream@$02@internal@tbb@@QEAAXPEAVtask@3@HAEAVFastRandom@23@@Z 00000001800298e9     arena.obj
 0002:000078f0       $unwind$??1?$task_stream@$02@internal@tbb@@QEAA@XZ 00000001800298f0     arena.obj
 0002:00007908       $cppxdata$??1?$task_stream@$02@internal@tbb@@QEAA@XZ 0000000180029908     arena.obj
 0002:00007911       $ip2state$??1?$task_stream@$02@internal@tbb@@QEAA@XZ 0000000180029911     arena.obj
 0002:00007914       $unwind$??1?$deque@PEAVtask@tbb@@V?$tbb_allocator@PEAVtask@tbb@@@2@@std@@QEAA@XZ 0000000180029914     arena.obj
 0002:0000792c       $cppxdata$??1?$deque@PEAVtask@tbb@@V?$tbb_allocator@PEAVtask@tbb@@@2@@std@@QEAA@XZ 000000018002992c     arena.obj
 0002:00007935       $ip2state$??1?$deque@PEAVtask@tbb@@V?$tbb_allocator@PEAVtask@tbb@@@2@@std@@QEAA@XZ 0000000180029935     arena.obj
 0002:0000793c       $chain$0$??$on_thread_leaving@$00@arena@internal@tbb@@QEAAXXZ 000000018002993c     arena.obj
 0002:00007950       $chain$1$??$on_thread_leaving@$00@arena@internal@tbb@@QEAAXXZ 0000000180029950     arena.obj
 0002:00007960       $chain$4$?_Growmap@?$deque@PEAVtask@tbb@@V?$tbb_allocator@PEAVtask@tbb@@@2@@std@@AEAAX_K@Z 0000000180029960     arena.obj
 0002:00007984       $chain$5$?_Growmap@?$deque@PEAVtask@tbb@@V?$tbb_allocator@PEAVtask@tbb@@@2@@std@@AEAAX_K@Z 0000000180029984     arena.obj
 0002:00007998       $chain$6$?_Growmap@?$deque@PEAVtask@tbb@@V?$tbb_allocator@PEAVtask@tbb@@@2@@std@@AEAAX_K@Z 0000000180029998     arena.obj
 0002:000079a8       $unwind$??0generic_scheduler@internal@tbb@@IEAA@AEAVmarket@12@_N@Z 00000001800299a8     scheduler.obj
 0002:000079c4       $cppxdata$??0generic_scheduler@internal@tbb@@IEAA@AEAVmarket@12@_N@Z 00000001800299c4     scheduler.obj
 0002:000079cd       $stateUnwindMap$??0generic_scheduler@internal@tbb@@IEAA@AEAVmarket@12@_N@Z 00000001800299cd     scheduler.obj
 0002:000079d4       $ip2state$??0generic_scheduler@internal@tbb@@IEAA@AEAVmarket@12@_N@Z 00000001800299d4     scheduler.obj
 0002:000079dc       $chain$0$?cleanup_scheduler@generic_scheduler@internal@tbb@@QEAAXXZ 00000001800299dc     scheduler.obj
 0002:000079f0       $chain$3$?cleanup_scheduler@generic_scheduler@internal@tbb@@QEAAXXZ 00000001800299f0     scheduler.obj
 0002:00007a0c       $chain$4$?cleanup_scheduler@generic_scheduler@internal@tbb@@QEAAXXZ 0000000180029a0c     scheduler.obj
 0002:00007a20       $chain$5$?cleanup_scheduler@generic_scheduler@internal@tbb@@QEAAXXZ 0000000180029a20     scheduler.obj
 0002:00007a34       $chain$6$?cleanup_scheduler@generic_scheduler@internal@tbb@@QEAAXXZ 0000000180029a34     scheduler.obj
 0002:00007a44       $unwind$?prepare_task_pool@generic_scheduler@internal@tbb@@QEAA_K_K@Z 0000000180029a44     scheduler.obj
 0002:00007a54       $chain$0$?prepare_task_pool@generic_scheduler@internal@tbb@@QEAA_K_K@Z 0000000180029a54     scheduler.obj
 0002:00007a68       $chain$3$?prepare_task_pool@generic_scheduler@internal@tbb@@QEAA_K_K@Z 0000000180029a68     scheduler.obj
 0002:00007a80       $chain$5$?prepare_task_pool@generic_scheduler@internal@tbb@@QEAA_K_K@Z 0000000180029a80     scheduler.obj
 0002:00007a98       $chain$6$?prepare_task_pool@generic_scheduler@internal@tbb@@QEAA_K_K@Z 0000000180029a98     scheduler.obj
 0002:00007aac       $chain$7$?prepare_task_pool@generic_scheduler@internal@tbb@@QEAA_K_K@Z 0000000180029aac     scheduler.obj
 0002:00007abc       $chain$8$?prepare_task_pool@generic_scheduler@internal@tbb@@QEAA_K_K@Z 0000000180029abc     scheduler.obj
 0002:00007ad0       $chain$9$?prepare_task_pool@generic_scheduler@internal@tbb@@QEAA_K_K@Z 0000000180029ad0     scheduler.obj
 0002:00007ae0       $chain$2$?acquire_task_pool@generic_scheduler@internal@tbb@@QEBAXXZ 0000000180029ae0     scheduler.obj
 0002:00007afc       $chain$3$?acquire_task_pool@generic_scheduler@internal@tbb@@QEBAXXZ 0000000180029afc     scheduler.obj
 0002:00007b0c       $unwind$?prepare_for_spawning@generic_scheduler@internal@tbb@@QEAAPEAVtask@3@PEAV43@@Z 0000000180029b0c     scheduler.obj
 0002:00007b1c       $chain$1$?prepare_for_spawning@generic_scheduler@internal@tbb@@QEAAPEAVtask@3@PEAV43@@Z 0000000180029b1c     scheduler.obj
 0002:00007b34       $chain$2$?prepare_for_spawning@generic_scheduler@internal@tbb@@QEAAPEAVtask@3@PEAV43@@Z 0000000180029b34     scheduler.obj
 0002:00007b44       $unwind$?local_spawn@generic_scheduler@internal@tbb@@QEAAXPEAVtask@3@AEAPEAV43@@Z 0000000180029b44     scheduler.obj
 0002:00007b6c       $cppxdata$?local_spawn@generic_scheduler@internal@tbb@@QEAAXPEAVtask@3@AEAPEAV43@@Z 0000000180029b6c     scheduler.obj
 0002:00007b75       $stateUnwindMap$?local_spawn@generic_scheduler@internal@tbb@@QEAAXPEAVtask@3@AEAPEAV43@@Z 0000000180029b75     scheduler.obj
 0002:00007b81       $ip2state$?local_spawn@generic_scheduler@internal@tbb@@QEAAXPEAVtask@3@AEAPEAV43@@Z 0000000180029b81     scheduler.obj
 0002:00007b8c       $unwind$?spawn_root_and_wait@generic_scheduler@internal@tbb@@UEAAXAEAVtask@3@AEAPEAV43@@Z 0000000180029b8c     scheduler.obj
 0002:00007ba8       $cppxdata$?spawn_root_and_wait@generic_scheduler@internal@tbb@@UEAAXAEAVtask@3@AEAPEAV43@@Z 0000000180029ba8     scheduler.obj
 0002:00007bb1       $stateUnwindMap$?spawn_root_and_wait@generic_scheduler@internal@tbb@@UEAAXAEAVtask@3@AEAPEAV43@@Z 0000000180029bb1     scheduler.obj
 0002:00007bbd       $ip2state$?spawn_root_and_wait@generic_scheduler@internal@tbb@@UEAAXAEAVtask@3@AEAPEAV43@@Z 0000000180029bbd     scheduler.obj
 0002:00007bc4       $unwind$?get_task_and_activate_task_pool@generic_scheduler@internal@tbb@@QEAAPEAVtask@3@_K0_J@Z 0000000180029bc4     scheduler.obj
 0002:00007be0       $unwind$?winnow_task_pool@generic_scheduler@internal@tbb@@QEAAPEAVtask@3@_J@Z 0000000180029be0     scheduler.obj
 0002:00007bf4       $cppxdata$?winnow_task_pool@generic_scheduler@internal@tbb@@QEAAPEAVtask@3@_J@Z 0000000180029bf4     scheduler.obj
 0002:00007bfd       $stateUnwindMap$?winnow_task_pool@generic_scheduler@internal@tbb@@QEAAPEAVtask@3@_J@Z 0000000180029bfd     scheduler.obj
 0002:00007c04       $ip2state$?winnow_task_pool@generic_scheduler@internal@tbb@@QEAAPEAVtask@3@_J@Z 0000000180029c04     scheduler.obj
 0002:00007c0c       $unwind$?reload_tasks@generic_scheduler@internal@tbb@@QEAAPEAVtask@3@AEAPEAV43@AEAPEAPEAV43@_J2@Z 0000000180029c0c     scheduler.obj
 0002:00007c34       $cppxdata$?reload_tasks@generic_scheduler@internal@tbb@@QEAAPEAVtask@3@AEAPEAV43@AEAPEAPEAV43@_J2@Z 0000000180029c34     scheduler.obj
 0002:00007c3d       $stateUnwindMap$?reload_tasks@generic_scheduler@internal@tbb@@QEAAPEAVtask@3@AEAPEAV43@AEAPEAPEAV43@_J2@Z 0000000180029c3d     scheduler.obj
 0002:00007c4a       $ip2state$?reload_tasks@generic_scheduler@internal@tbb@@QEAAPEAVtask@3@AEAPEAV43@AEAPEAPEAV43@_J2@Z 0000000180029c4a     scheduler.obj
 0002:00007c58       $unwind$?reload_tasks@generic_scheduler@internal@tbb@@QEAAPEAVtask@3@_J@Z 0000000180029c58     scheduler.obj
 0002:00007c64       $chain$2$?reload_tasks@generic_scheduler@internal@tbb@@QEAAPEAVtask@3@_J@Z 0000000180029c64     scheduler.obj
 0002:00007c80       $chain$3$?reload_tasks@generic_scheduler@internal@tbb@@QEAAPEAVtask@3@_J@Z 0000000180029c80     scheduler.obj
 0002:00007c98       $unwind$?get_task@generic_scheduler@internal@tbb@@QEAAPEAVtask@3@_K_JAEA_N@Z 0000000180029c98     scheduler.obj
 0002:00007ca8       $chain$2$?get_task@generic_scheduler@internal@tbb@@QEAAPEAVtask@3@_K_JAEA_N@Z 0000000180029ca8     scheduler.obj
 0002:00007cc4       $chain$3$?get_task@generic_scheduler@internal@tbb@@QEAAPEAVtask@3@_K_JAEA_N@Z 0000000180029cc4     scheduler.obj
 0002:00007cd4       $unwind$?internal_push_back@concurrent_vector_base@internal@tbb@@IEAAPEAX_KAEA_K@Z 0000000180029cd4     concurrent_vector_v2.obj
 0002:00007cd4       $unwind$?get_mailbox_task@generic_scheduler@internal@tbb@@QEAAPEAVtask@3@_J@Z 0000000180029cd4     scheduler.obj
 0002:00007cd4       $unwind$?get_task@generic_scheduler@internal@tbb@@QEAAPEAVtask@3@_J@Z 0000000180029cd4     scheduler.obj
 0002:00007cf0       $unwind$?steal_task_from@generic_scheduler@internal@tbb@@QEAAPEAVtask@3@AEAUarena_slot@23@_J@Z 0000000180029cf0     scheduler.obj
 0002:00007d04       $chain$1$?steal_task_from@generic_scheduler@internal@tbb@@QEAAPEAVtask@3@AEAUarena_slot@23@_J@Z 0000000180029d04     scheduler.obj
 0002:00007d1c       $chain$2$?steal_task_from@generic_scheduler@internal@tbb@@QEAAPEAVtask@3@AEAUarena_slot@23@_J@Z 0000000180029d1c     scheduler.obj
 0002:00007d30       $chain$3$?steal_task_from@generic_scheduler@internal@tbb@@QEAAPEAVtask@3@AEAUarena_slot@23@_J@Z 0000000180029d30     scheduler.obj
 0002:00007d40       $unwind$?create_master@generic_scheduler@internal@tbb@@SAPEAV123@PEAVarena@23@@Z 0000000180029d40     scheduler.obj
 0002:00007d60       $cppxdata$?create_master@generic_scheduler@internal@tbb@@SAPEAV123@PEAVarena@23@@Z 0000000180029d60     scheduler.obj
 0002:00007d69       $ip2state$?create_master@generic_scheduler@internal@tbb@@SAPEAV123@PEAVarena@23@@Z 0000000180029d69     scheduler.obj
 0002:00007d74       $unwind$?cleanup_master@generic_scheduler@internal@tbb@@QEAA_N_N@Z 0000000180029d74     scheduler.obj
 0002:00007d98       $cppxdata$?cleanup_master@generic_scheduler@internal@tbb@@QEAA_N_N@Z 0000000180029d98     scheduler.obj
 0002:00007da1       $ip2state$?cleanup_master@generic_scheduler@internal@tbb@@QEAA_N_N@Z 0000000180029da1     scheduler.obj
 0002:00007dac       $unwind$??1?$fast_reverse_vector@PEAVtask@tbb@@$0BA@@internal@tbb@@QEAA@XZ 0000000180029dac     scheduler.obj
 0002:00007dc4       $cppxdata$??1?$fast_reverse_vector@PEAVtask@tbb@@$0BA@@internal@tbb@@QEAA@XZ 0000000180029dc4     scheduler.obj
 0002:00007dc9       $ip2state$??1?$fast_reverse_vector@PEAVtask@tbb@@$0BA@@internal@tbb@@QEAA@XZ 0000000180029dc9     scheduler.obj
 0002:00007dcc       $unwind$?local_wait_for_all@?$custom_scheduler@UDefaultSchedulerTraits@internal@tbb@@@internal@tbb@@EEAAXAEAVtask@3@PEAV43@@Z 0000000180029dcc     scheduler.obj
 0002:00007dec       $cppxdata$?local_wait_for_all@?$custom_scheduler@UDefaultSchedulerTraits@internal@tbb@@@internal@tbb@@EEAAXAEAVtask@3@PEAV43@@Z 0000000180029dec     scheduler.obj
 0002:00007df9       $stateUnwindMap$?local_wait_for_all@?$custom_scheduler@UDefaultSchedulerTraits@internal@tbb@@@internal@tbb@@EEAAXAEAVtask@3@PEAV43@@Z 0000000180029df9     scheduler.obj
 0002:00007e12       $tryMap$?local_wait_for_all@?$custom_scheduler@UDefaultSchedulerTraits@internal@tbb@@@internal@tbb@@EEAAXAEAVtask@3@PEAV43@@Z 0000000180029e12     scheduler.obj
 0002:00007e1a       $handlerMap$?local_wait_for_all@?$custom_scheduler@UDefaultSchedulerTraits@internal@tbb@@@internal@tbb@@EEAAXAEAVtask@3@PEAV43@@Z 0000000180029e1a     scheduler.obj
 0002:00007e3f       $ip2state$?local_wait_for_all@?$custom_scheduler@UDefaultSchedulerTraits@internal@tbb@@@internal@tbb@@EEAAXAEAVtask@3@PEAV43@@Z 0000000180029e3f     scheduler.obj
 0002:00007e54       $unwind$?catch$19@?0??local_wait_for_all@?$custom_scheduler@UDefaultSchedulerTraits@internal@tbb@@@internal@tbb@@EEAAXAEAVtask@3@PEAV43@@Z@4HA 0000000180029e54     scheduler.obj
 0002:00007e54       $unwind$?catch$19@?0??local_wait_for_all@?$custom_scheduler@UIntelSchedulerTraits@internal@tbb@@@internal@tbb@@EEAAXAEAVtask@3@PEAV43@@Z@4HA 0000000180029e54     scheduler.obj
 0002:00007e68       $cppxdata$?catch$19@?0??local_wait_for_all@?$custom_scheduler@UDefaultSchedulerTraits@internal@tbb@@@internal@tbb@@EEAAXAEAVtask@3@PEAV43@@Z@4HA 0000000180029e68     scheduler.obj
 0002:00007e68       $cppxdata$?catch$19@?0??local_wait_for_all@?$custom_scheduler@UIntelSchedulerTraits@internal@tbb@@@internal@tbb@@EEAAXAEAVtask@3@PEAV43@@Z@4HA 0000000180029e68     scheduler.obj
 0002:00007e72       $stateUnwindMap$?catch$19@?0??local_wait_for_all@?$custom_scheduler@UDefaultSchedulerTraits@internal@tbb@@@internal@tbb@@EEAAXAEAVtask@3@PEAV43@@Z@4HA 0000000180029e72     scheduler.obj
 0002:00007e72       $stateUnwindMap$?catch$19@?0??local_wait_for_all@?$custom_scheduler@UIntelSchedulerTraits@internal@tbb@@@internal@tbb@@EEAAXAEAVtask@3@PEAV43@@Z@4HA 0000000180029e72     scheduler.obj
 0002:00007e72       $stateUnwindMap$?catch$20@?0??local_wait_for_all@?$custom_scheduler@UDefaultSchedulerTraits@internal@tbb@@@internal@tbb@@EEAAXAEAVtask@3@PEAV43@@Z@4HA 0000000180029e72     scheduler.obj
 0002:00007e72       $stateUnwindMap$?catch$20@?0??local_wait_for_all@?$custom_scheduler@UIntelSchedulerTraits@internal@tbb@@@internal@tbb@@EEAAXAEAVtask@3@PEAV43@@Z@4HA 0000000180029e72     scheduler.obj
 0002:00007e72       $stateUnwindMap$?catch$21@?0??local_wait_for_all@?$custom_scheduler@UDefaultSchedulerTraits@internal@tbb@@@internal@tbb@@EEAAXAEAVtask@3@PEAV43@@Z@4HA 0000000180029e72     scheduler.obj
 0002:00007e72       $stateUnwindMap$?catch$21@?0??local_wait_for_all@?$custom_scheduler@UIntelSchedulerTraits@internal@tbb@@@internal@tbb@@EEAAXAEAVtask@3@PEAV43@@Z@4HA 0000000180029e72     scheduler.obj
 0002:00007e8d       $ip2state$?catch$19@?0??local_wait_for_all@?$custom_scheduler@UDefaultSchedulerTraits@internal@tbb@@@internal@tbb@@EEAAXAEAVtask@3@PEAV43@@Z@4HA 0000000180029e8d     scheduler.obj
 0002:00007e8d       $ip2state$?catch$19@?0??local_wait_for_all@?$custom_scheduler@UIntelSchedulerTraits@internal@tbb@@@internal@tbb@@EEAAXAEAVtask@3@PEAV43@@Z@4HA 0000000180029e8d     scheduler.obj
 0002:00007e98       $unwind$?catch$20@?0??local_wait_for_all@?$custom_scheduler@UDefaultSchedulerTraits@internal@tbb@@@internal@tbb@@EEAAXAEAVtask@3@PEAV43@@Z@4HA 0000000180029e98     scheduler.obj
 0002:00007e98       $unwind$?catch$20@?0??local_wait_for_all@?$custom_scheduler@UIntelSchedulerTraits@internal@tbb@@@internal@tbb@@EEAAXAEAVtask@3@PEAV43@@Z@4HA 0000000180029e98     scheduler.obj
 0002:00007eb0       $cppxdata$?catch$20@?0??local_wait_for_all@?$custom_scheduler@UDefaultSchedulerTraits@internal@tbb@@@internal@tbb@@EEAAXAEAVtask@3@PEAV43@@Z@4HA 0000000180029eb0     scheduler.obj
 0002:00007eb0       $cppxdata$?catch$20@?0??local_wait_for_all@?$custom_scheduler@UIntelSchedulerTraits@internal@tbb@@@internal@tbb@@EEAAXAEAVtask@3@PEAV43@@Z@4HA 0000000180029eb0     scheduler.obj
 0002:00007eba       $ip2state$?catch$20@?0??local_wait_for_all@?$custom_scheduler@UDefaultSchedulerTraits@internal@tbb@@@internal@tbb@@EEAAXAEAVtask@3@PEAV43@@Z@4HA 0000000180029eba     scheduler.obj
 0002:00007eba       $ip2state$?catch$20@?0??local_wait_for_all@?$custom_scheduler@UIntelSchedulerTraits@internal@tbb@@@internal@tbb@@EEAAXAEAVtask@3@PEAV43@@Z@4HA 0000000180029eba     scheduler.obj
 0002:00007ec4       $unwind$?catch$21@?0??local_wait_for_all@?$custom_scheduler@UDefaultSchedulerTraits@internal@tbb@@@internal@tbb@@EEAAXAEAVtask@3@PEAV43@@Z@4HA 0000000180029ec4     scheduler.obj
 0002:00007ec4       $unwind$?catch$21@?0??local_wait_for_all@?$custom_scheduler@UIntelSchedulerTraits@internal@tbb@@@internal@tbb@@EEAAXAEAVtask@3@PEAV43@@Z@4HA 0000000180029ec4     scheduler.obj
 0002:00007ed8       $cppxdata$?catch$21@?0??local_wait_for_all@?$custom_scheduler@UDefaultSchedulerTraits@internal@tbb@@@internal@tbb@@EEAAXAEAVtask@3@PEAV43@@Z@4HA 0000000180029ed8     scheduler.obj
 0002:00007ed8       $cppxdata$?catch$21@?0??local_wait_for_all@?$custom_scheduler@UIntelSchedulerTraits@internal@tbb@@@internal@tbb@@EEAAXAEAVtask@3@PEAV43@@Z@4HA 0000000180029ed8     scheduler.obj
 0002:00007ee2       $ip2state$?catch$21@?0??local_wait_for_all@?$custom_scheduler@UDefaultSchedulerTraits@internal@tbb@@@internal@tbb@@EEAAXAEAVtask@3@PEAV43@@Z@4HA 0000000180029ee2     scheduler.obj
 0002:00007ee2       $ip2state$?catch$21@?0??local_wait_for_all@?$custom_scheduler@UIntelSchedulerTraits@internal@tbb@@@internal@tbb@@EEAAXAEAVtask@3@PEAV43@@Z@4HA 0000000180029ee2     scheduler.obj
 0002:00007eec       $unwind$?receive_or_steal_task@?$custom_scheduler@UDefaultSchedulerTraits@internal@tbb@@@internal@tbb@@UEAAPEAVtask@3@AEA_J_J@Z 0000000180029eec     scheduler.obj
 0002:00007eec       $unwind$?receive_or_steal_task@?$custom_scheduler@UIntelSchedulerTraits@internal@tbb@@@internal@tbb@@UEAAPEAVtask@3@AEA_J_J@Z 0000000180029eec     scheduler.obj
 0002:00007f04       $unwind$?local_wait_for_all@?$custom_scheduler@UIntelSchedulerTraits@internal@tbb@@@internal@tbb@@EEAAXAEAVtask@3@PEAV43@@Z 0000000180029f04     scheduler.obj
 0002:00007f24       $cppxdata$?local_wait_for_all@?$custom_scheduler@UIntelSchedulerTraits@internal@tbb@@@internal@tbb@@EEAAXAEAVtask@3@PEAV43@@Z 0000000180029f24     scheduler.obj
 0002:00007f31       $stateUnwindMap$?local_wait_for_all@?$custom_scheduler@UIntelSchedulerTraits@internal@tbb@@@internal@tbb@@EEAAXAEAVtask@3@PEAV43@@Z 0000000180029f31     scheduler.obj
 0002:00007f4a       $tryMap$?local_wait_for_all@?$custom_scheduler@UIntelSchedulerTraits@internal@tbb@@@internal@tbb@@EEAAXAEAVtask@3@PEAV43@@Z 0000000180029f4a     scheduler.obj
 0002:00007f52       $handlerMap$?local_wait_for_all@?$custom_scheduler@UIntelSchedulerTraits@internal@tbb@@@internal@tbb@@EEAAXAEAVtask@3@PEAV43@@Z 0000000180029f52     scheduler.obj
 0002:00007f77       $ip2state$?local_wait_for_all@?$custom_scheduler@UIntelSchedulerTraits@internal@tbb@@@internal@tbb@@EEAAXAEAVtask@3@PEAV43@@Z 0000000180029f77     scheduler.obj
 0002:00007f84       $unwind$??$free_task@$05@generic_scheduler@internal@tbb@@QEAAXAEAVtask@2@@Z 0000000180029f84     scheduler.obj
 0002:00007f84       $unwind$??$free_task@$0A@@generic_scheduler@internal@tbb@@QEAAXAEAVtask@2@@Z 0000000180029f84     scheduler.obj
 0002:00007f90       $chain$1$??$free_task@$05@generic_scheduler@internal@tbb@@QEAAXAEAVtask@2@@Z 0000000180029f90     scheduler.obj
 0002:00007f90       $chain$1$??$free_task@$0A@@generic_scheduler@internal@tbb@@QEAAXAEAVtask@2@@Z 0000000180029f90     scheduler.obj
 0002:00007fa8       $chain$2$??$free_task@$05@generic_scheduler@internal@tbb@@QEAAXAEAVtask@2@@Z 0000000180029fa8     scheduler.obj
 0002:00007fa8       $chain$2$??$free_task@$0A@@generic_scheduler@internal@tbb@@QEAAXAEAVtask@2@@Z 0000000180029fa8     scheduler.obj
 0002:00007fb8       $unwind$??1?$context_guard_helper@$00@internal@tbb@@QEAA@XZ 0000000180029fb8     scheduler.obj
 0002:00007fc8       $cppxdata$??1?$context_guard_helper@$00@internal@tbb@@QEAA@XZ 0000000180029fc8     scheduler.obj
 0002:00007fcd       $ip2state$??1?$context_guard_helper@$00@internal@tbb@@QEAA@XZ 0000000180029fcd     scheduler.obj
 0002:00007fd0       $unwind$?pop@?$task_stream@$02@internal@tbb@@QEAAPEAVtask@3@HAEAI@Z 0000000180029fd0     scheduler.obj
 0002:00007fe0       $chain$1$?pop@?$task_stream@$02@internal@tbb@@QEAAPEAVtask@3@HAEAI@Z 0000000180029fe0     scheduler.obj
 0002:00007ff8       $chain$3$?pop@?$task_stream@$02@internal@tbb@@QEAAPEAVtask@3@HAEAI@Z 0000000180029ff8     scheduler.obj
 0002:00008010       $chain$4$?pop@?$task_stream@$02@internal@tbb@@QEAAPEAVtask@3@HAEAI@Z 000000018002a010     scheduler.obj
 0002:00008020       $unwind$?process_bypass_loop@?$custom_scheduler@UDefaultSchedulerTraits@internal@tbb@@@internal@tbb@@AEAA_NAEAV?$context_guard_helper@$00@23@PEAVtask@3@_J@Z 000000018002a020     scheduler.obj
 0002:00008030       $chain$2$?process_bypass_loop@?$custom_scheduler@UDefaultSchedulerTraits@internal@tbb@@@internal@tbb@@AEAA_NAEAV?$context_guard_helper@$00@23@PEAVtask@3@_J@Z 000000018002a030     scheduler.obj
 0002:0000804c       $chain$3$?process_bypass_loop@?$custom_scheduler@UDefaultSchedulerTraits@internal@tbb@@@internal@tbb@@AEAA_NAEAV?$context_guard_helper@$00@23@PEAVtask@3@_J@Z 000000018002a04c     scheduler.obj
 0002:0000805c       $unwind$?process_bypass_loop@?$custom_scheduler@UIntelSchedulerTraits@internal@tbb@@@internal@tbb@@AEAA_NAEAV?$context_guard_helper@$0A@@23@PEAVtask@3@_J@Z 000000018002a05c     scheduler.obj
 0002:0000806c       $chain$2$?process_bypass_loop@?$custom_scheduler@UIntelSchedulerTraits@internal@tbb@@@internal@tbb@@AEAA_NAEAV?$context_guard_helper@$0A@@23@PEAVtask@3@_J@Z 000000018002a06c     scheduler.obj
 0002:00008088       $chain$3$?process_bypass_loop@?$custom_scheduler@UIntelSchedulerTraits@internal@tbb@@@internal@tbb@@AEAA_NAEAV?$context_guard_helper@$0A@@23@PEAVtask@3@_J@Z 000000018002a088     scheduler.obj
 0002:00008098       $unwind$?tally_completion_of_predecessor@?$custom_scheduler@UIntelSchedulerTraits@internal@tbb@@@internal@tbb@@AEAAXAEAVtask@3@AEAPEAV43@_J@Z 000000018002a098     scheduler.obj
 0002:000080a4       $chain$1$?tally_completion_of_predecessor@?$custom_scheduler@UIntelSchedulerTraits@internal@tbb@@@internal@tbb@@AEAAXAEAVtask@3@AEAPEAV43@_J@Z 000000018002a0a4     scheduler.obj
 0002:000080bc       $chain$2$?tally_completion_of_predecessor@?$custom_scheduler@UIntelSchedulerTraits@internal@tbb@@@internal@tbb@@AEAAXAEAVtask@3@AEAPEAV43@_J@Z 000000018002a0bc     scheduler.obj
 0002:000080d0       $chain$3$?tally_completion_of_predecessor@?$custom_scheduler@UIntelSchedulerTraits@internal@tbb@@@internal@tbb@@AEAAXAEAVtask@3@AEAPEAV43@_J@Z 000000018002a0d0     scheduler.obj
 0002:000080e0       $unwind$?observe@task_scheduler_observer_v3@internal@tbb@@QEAAX_N@Z 000000018002a0e0     observer_proxy.obj
 0002:000080f0       $chain$0$?observe@task_scheduler_observer_v3@internal@tbb@@QEAAX_N@Z 000000018002a0f0     observer_proxy.obj
 0002:00008104       $chain$1$?observe@task_scheduler_observer_v3@internal@tbb@@QEAAX_N@Z 000000018002a104     observer_proxy.obj
 0002:00008114       $chain$0$?add_ref@__TBB_InitOnce@internal@tbb@@SAXXZ 000000018002a114     tbb_main.obj
 0002:00008128       $chain$1$?add_ref@__TBB_InitOnce@internal@tbb@@SAXXZ 000000018002a128     tbb_main.obj
 0002:00008138       $chain$1$?remove_ref@__TBB_InitOnce@internal@tbb@@SAXXZ 000000018002a138     tbb_main.obj
 0002:00008150       $chain$2$?remove_ref@__TBB_InitOnce@internal@tbb@@SAXXZ 000000018002a150     tbb_main.obj
 0002:00008164       $chain$3$?remove_ref@__TBB_InitOnce@internal@tbb@@SAXXZ 000000018002a164     tbb_main.obj
 0002:00008174       $chain$4$?remove_ref@__TBB_InitOnce@internal@tbb@@SAXXZ 000000018002a174     tbb_main.obj
 0002:00008184       $chain$1$?ITT_DoUnsafeOneTimeInitialization@internal@tbb@@YAXXZ 000000018002a184     tbb_main.obj
 0002:0000819c       $chain$2$?ITT_DoUnsafeOneTimeInitialization@internal@tbb@@YAXXZ 000000018002a19c     tbb_main.obj
 0002:000081ac       $chain$1$ITT_DoOneTimeInitialization 000000018002a1ac     tbb_main.obj
 0002:000081c4       $chain$2$ITT_DoOneTimeInitialization 000000018002a1c4     tbb_main.obj
 0002:000081d4       $unwind$?DoOneTimeInitializations@internal@tbb@@YAXXZ 000000018002a1d4     tbb_main.obj
 0002:000081ec       $unwind$?itt_make_task_group_v7@internal@tbb@@YAXW4itt_domain_enum@12@PEAX_K12W4string_index@12@@Z 000000018002a1ec     tbb_main.obj
 0002:00008208       $unwind$?itt_metadata_ptr_add_v11@internal@tbb@@YAXW4itt_domain_enum@12@PEAX_KW4string_index@12@1@Z 000000018002a208     tbb_main.obj
 0002:00008208       $unwind$?itt_metadata_str_add_v7@internal@tbb@@YAXW4itt_domain_enum@12@PEAX_KW4string_index@12@PEBD@Z 000000018002a208     tbb_main.obj
 0002:00008220       $unwind$?itt_relation_add_v7@internal@tbb@@YAXW4itt_domain_enum@12@PEAX_KW4itt_relation@12@12@Z 000000018002a220     tbb_main.obj
 0002:00008238       $unwind$?itt_task_begin_v7@internal@tbb@@YAXW4itt_domain_enum@12@PEAX_K12W4string_index@12@@Z 000000018002a238     tbb_main.obj
 0002:00008250       $unwind$?itt_region_begin_v9@internal@tbb@@YAXW4itt_domain_enum@12@PEAX_K12W4string_index@12@@Z 000000018002a250     tbb_main.obj
 0002:00008264       $unwind$?itt_region_end_v9@internal@tbb@@YAXW4itt_domain_enum@12@PEAX_K@Z 000000018002a264     tbb_main.obj
 0002:00008274       $chain$1$?active_value@allowed_parallelism_control@internal@tbb@@EEBA_KXZ 000000018002a274     tbb_main.obj
 0002:0000828c       $chain$2$?active_value@allowed_parallelism_control@internal@tbb@@EEBA_KXZ 000000018002a28c     tbb_main.obj
 0002:0000829c       $unwind$?internal_create@global_control@interface9@tbb@@AEAAXXZ 000000018002a29c     tbb_main.obj
 0002:000082bc       $cppxdata$?internal_create@global_control@interface9@tbb@@AEAAXXZ 000000018002a2bc     tbb_main.obj
 0002:000082c5       $ip2state$?internal_create@global_control@interface9@tbb@@AEAAXXZ 000000018002a2c5     tbb_main.obj
 0002:000082d0       $unwind$?internal_destroy@global_control@interface9@tbb@@AEAAXXZ 000000018002a2d0     tbb_main.obj
 0002:000082f4       $cppxdata$?internal_destroy@global_control@interface9@tbb@@AEAAXXZ 000000018002a2f4     tbb_main.obj
 0002:000082fd       $ip2state$?internal_destroy@global_control@interface9@tbb@@AEAAXXZ 000000018002a2fd     tbb_main.obj
 0002:00008308       $unwind$?extend_segment_if_necessary@helper@concurrent_vector_base@internal@tbb@@SAXAEAV234@_K@Z 000000018002a308     concurrent_vector_v2.obj
 0002:00008310       $chain$0$?extend_segment_if_necessary@helper@concurrent_vector_base@internal@tbb@@SAXAEAV234@_K@Z 000000018002a310     concurrent_vector_v2.obj
 0002:00008324       $chain$2$?extend_segment_if_necessary@helper@concurrent_vector_base@internal@tbb@@SAXAEAV234@_K@Z 000000018002a324     concurrent_vector_v2.obj
 0002:0000833c       $chain$3$?extend_segment_if_necessary@helper@concurrent_vector_base@internal@tbb@@SAXAEAV234@_K@Z 000000018002a33c     concurrent_vector_v2.obj
 0002:00008350       $chain$4$?extend_segment_if_necessary@helper@concurrent_vector_base@internal@tbb@@SAXAEAV234@_K@Z 000000018002a350     concurrent_vector_v2.obj
 0002:00008360       $chain$5$?extend_segment_if_necessary@helper@concurrent_vector_base@internal@tbb@@SAXAEAV234@_K@Z 000000018002a360     concurrent_vector_v2.obj
 0002:00008370       $unwind$?internal_reserve@concurrent_vector_base@internal@tbb@@IEAAX_K00@Z 000000018002a370     concurrent_vector_v2.obj
 0002:0000837c       $chain$2$?internal_reserve@concurrent_vector_base@internal@tbb@@IEAAX_K00@Z 000000018002a37c     concurrent_vector_v2.obj
 0002:00008398       $chain$4$?internal_reserve@concurrent_vector_base@internal@tbb@@IEAAX_K00@Z 000000018002a398     concurrent_vector_v2.obj
 0002:000083b0       $chain$5$?internal_reserve@concurrent_vector_base@internal@tbb@@IEAAX_K00@Z 000000018002a3b0     concurrent_vector_v2.obj
 0002:000083c0       $chain$6$?internal_reserve@concurrent_vector_base@internal@tbb@@IEAAX_K00@Z 000000018002a3c0     concurrent_vector_v2.obj
 0002:000083d0       $unwind$?internal_copy@concurrent_vector_base@internal@tbb@@IEAAXAEBV123@_KP6AXPEAXPEBX1@Z@Z 000000018002a3d0     concurrent_vector_v2.obj
 0002:000083dc       $chain$1$?internal_copy@concurrent_vector_base@internal@tbb@@IEAAXAEBV123@_KP6AXPEAXPEBX1@Z@Z 000000018002a3dc     concurrent_vector_v2.obj
 0002:000083f4       $chain$4$?internal_copy@concurrent_vector_base@internal@tbb@@IEAAXAEBV123@_KP6AXPEAXPEBX1@Z@Z 000000018002a3f4     concurrent_vector_v2.obj
 0002:00008410       $chain$5$?internal_copy@concurrent_vector_base@internal@tbb@@IEAAXAEBV123@_KP6AXPEAXPEBX1@Z@Z 000000018002a410     concurrent_vector_v2.obj
 0002:00008420       $chain$6$?internal_copy@concurrent_vector_base@internal@tbb@@IEAAXAEBV123@_KP6AXPEAXPEBX1@Z@Z 000000018002a420     concurrent_vector_v2.obj
 0002:00008430       $unwind$?internal_assign@concurrent_vector_base@internal@tbb@@IEAAXAEBV123@_KP6AXPEAX1@ZP6AX2PEBX1@Z5@Z 000000018002a430     concurrent_vector_v2.obj
 0002:00008444       $chain$1$?internal_assign@concurrent_vector_base@internal@tbb@@IEAAXAEBV123@_KP6AXPEAX1@ZP6AX2PEBX1@Z5@Z 000000018002a444     concurrent_vector_v2.obj
 0002:0000845c       $chain$2$?internal_assign@concurrent_vector_base@internal@tbb@@IEAAXAEBV123@_KP6AXPEAX1@ZP6AX2PEBX1@Z5@Z 000000018002a45c     concurrent_vector_v2.obj
 0002:0000846c       $unwind$?internal_grow@concurrent_vector_base@internal@tbb@@IEAAX_K00P6AXPEAX0@Z@Z 000000018002a46c     concurrent_vector_v2.obj
 0002:00008484       $chain$0$?internal_clear@concurrent_vector_base@internal@tbb@@IEAAXP6AXPEAX_K@Z_N@Z 000000018002a484     concurrent_vector_v2.obj
 0002:00008498       $chain$1$?internal_clear@concurrent_vector_base@internal@tbb@@IEAAXP6AXPEAX_K@Z_N@Z 000000018002a498     concurrent_vector_v2.obj
 0002:000084ac       $chain$2$?internal_clear@concurrent_vector_base@internal@tbb@@IEAAXP6AXPEAX_K@Z_N@Z 000000018002a4ac     concurrent_vector_v2.obj
 0002:000084bc       $chain$3$?internal_clear@concurrent_vector_base@internal@tbb@@IEAAXP6AXPEAX_K@Z_N@Z 000000018002a4bc     concurrent_vector_v2.obj
 0002:000084cc       $unwind$??1pop_finalizer@micro_queue@internal@tbb@@QEAA@XZ 000000018002a4cc     concurrent_queue_v2.obj
 0002:000084d4       $chain$0$??1pop_finalizer@micro_queue@internal@tbb@@QEAA@XZ 000000018002a4d4     concurrent_queue_v2.obj
 0002:000084e8       $chain$3$??1pop_finalizer@micro_queue@internal@tbb@@QEAA@XZ 000000018002a4e8     concurrent_queue_v2.obj
 0002:00008504       $chain$4$??1pop_finalizer@micro_queue@internal@tbb@@QEAA@XZ 000000018002a504     concurrent_queue_v2.obj
 0002:00008518       $chain$5$??1pop_finalizer@micro_queue@internal@tbb@@QEAA@XZ 000000018002a518     concurrent_queue_v2.obj
 0002:00008528       $chain$6$??1pop_finalizer@micro_queue@internal@tbb@@QEAA@XZ 000000018002a528     concurrent_queue_v2.obj
 0002:00008538       $unwind$?push@micro_queue@internal@tbb@@QEAAXPEBX_KAEAVconcurrent_queue_base@23@@Z 000000018002a538     concurrent_queue_v2.obj
 0002:0000855c       $cppxdata$?push@micro_queue@internal@tbb@@QEAAXPEBX_KAEAVconcurrent_queue_base@23@@Z 000000018002a55c     concurrent_queue_v2.obj
 0002:00008565       $stateUnwindMap$?push@micro_queue@internal@tbb@@QEAAXPEBX_KAEAVconcurrent_queue_base@23@@Z 000000018002a565     concurrent_queue_v2.obj
 0002:0000856c       $ip2state$?push@micro_queue@internal@tbb@@QEAAXPEBX_KAEAVconcurrent_queue_base@23@@Z 000000018002a56c     concurrent_queue_v2.obj
 0002:00008574       $unwind$?pop@micro_queue@internal@tbb@@QEAA_NPEAX_KAEAVconcurrent_queue_base@23@@Z 000000018002a574     concurrent_queue_v2.obj
 0002:00008598       $cppxdata$?pop@micro_queue@internal@tbb@@QEAA_NPEAX_KAEAVconcurrent_queue_base@23@@Z 000000018002a598     concurrent_queue_v2.obj
 0002:000085a1       $stateUnwindMap$?pop@micro_queue@internal@tbb@@QEAA_NPEAX_KAEAVconcurrent_queue_base@23@@Z 000000018002a5a1     concurrent_queue_v2.obj
 0002:000085a8       $ip2state$?pop@micro_queue@internal@tbb@@QEAA_NPEAX_KAEAVconcurrent_queue_base@23@@Z 000000018002a5a8     concurrent_queue_v2.obj
 0002:000085ac       $unwind$??_Gconcurrent_queue_base@internal@tbb@@MEAAPEAXI@Z 000000018002a5ac     concurrent_queue_v2.obj
 0002:000085c4       $cppxdata$??_Gconcurrent_queue_base@internal@tbb@@MEAAPEAXI@Z 000000018002a5c4     concurrent_queue_v2.obj
 0002:000085cd       $ip2state$??_Gconcurrent_queue_base@internal@tbb@@MEAAPEAXI@Z 000000018002a5cd     concurrent_queue_v2.obj
 0002:000085d0       $unwind$??1concurrent_queue_base@internal@tbb@@MEAA@XZ 000000018002a5d0     concurrent_queue_v2.obj
 0002:000085e4       $cppxdata$??1concurrent_queue_base@internal@tbb@@MEAA@XZ 000000018002a5e4     concurrent_queue_v2.obj
 0002:000085e9       $ip2state$??1concurrent_queue_base@internal@tbb@@MEAA@XZ 000000018002a5e9     concurrent_queue_v2.obj
 0002:000085ec       $unwind$?internal_upgrade@spin_rw_mutex@tbb@@CA_NPEAV12@@Z 000000018002a5ec     spin_rw_mutex_v2.obj
 0002:000085f8       $chain$0$?destroy@task@tbb@@QEAAXAEAV12@@Z 000000018002a5f8     task_v2.obj
 0002:0000860c       $chain$1$?destroy@task@tbb@@QEAAXAEAV12@@Z 000000018002a60c     task_v2.obj
 0002:00008620       $xdatasym                  000000018002a620     MSVCRT:amdsecgs.obj
 0002:00008624       $unwind$__report_securityfailure 000000018002a624     MSVCRT:gs_report.obj
 0002:0000862c       $unwind$__report_gsfailure 000000018002a62c     MSVCRT:gs_report.obj
 0002:00008634       $unwind$capture_current_context 000000018002a634     MSVCRT:gs_report.obj
 0002:00008640       $unwind$capture_previous_context 000000018002a640     MSVCRT:gs_report.obj
 0002:0000864c       $unwind$??_M@YAXPEAX_K1P6AX0@Z@Z 000000018002a64c     MSVCRT:ehvecdtr.obj
 0002:00008674       $unwind$?__ArrayUnwind@@YAXPEAX_K1P6AX0@Z@Z 000000018002a674     MSVCRT:ehvecdtr.obj
 0002:000086a0       $unwind$?filt$0@?0??__ArrayUnwind@@YAXPEAX_K1P6AX0@Z@Z@4HA 000000018002a6a0     MSVCRT:ehvecdtr.obj
 0002:000086ac       $unwind$??_L@YAXPEAX_K1P6AX0@Z2@Z 000000018002a6ac     MSVCRT:ehvecctr.obj
 0002:000086d8       $unwind$__scrt_is_nonwritable_in_current_image 000000018002a6d8     MSVCRT:utility.obj
 0002:000086f8       $unwind$__scrt_is_nonwritable_in_current_image$filt$0 000000018002a6f8     MSVCRT:utility.obj
 0002:00008700       $unwind$?dllmain_crt_process_attach@@YAHQEAUHINSTANCE__@@QEAX@Z 000000018002a700     MSVCRT:dll_dllmain.obj
 0002:0000873c       $unwind$?dllmain_crt_process_detach@@YAH_N@Z 000000018002a73c     MSVCRT:dll_dllmain.obj
 0002:00008790       $unwind$?dllmain_dispatch@@YAHQEAUHINSTANCE__@@KQEAX@Z 000000018002a790     MSVCRT:dll_dllmain.obj
 0002:000087b8       $unwind$?filt$0@?0??dllmain_dispatch@@YAHQEAUHINSTANCE__@@KQEAX@Z@4HA 000000018002a7b8     MSVCRT:dll_dllmain.obj
 0002:000087c0       $unwind$__scrt_fastfail    000000018002a7c0     MSVCRT:utility_desktop.obj
 0002:000087d0       $unwind$__isa_available_init 000000018002a7d0     MSVCRT:cpu_disp.obj
 0002:000087e0       $unwind$__security_init_cookie 000000018002a7e0     MSVCRT:gs_support.obj
 0002:000087f0       $xdatasym                  000000018002a7f0     MSVCRT:guard_dispatch.obj
 0002:000087f8       $xdatasym                  000000018002a7f8     MSVCRT:guard_xfg_dispatch.obj
 0002:000087fc       $unwind$__GSHandlerCheckCommon 000000018002a7fc     MSVCRT:gshandler.obj
 0002:00008804       $unwind$__GSHandlerCheck_EH4 000000018002a804     MSVCRT:gshandlereh4.obj
 0002:00008820       $xdatasym                  000000018002a820     MSVCRT:chkstk.obj
 0002:00008dc0       .edata                     000000018002adc0     tbb.exp
 0002:00008de8       rgpv                       000000018002ade8     tbb.exp
 0002:000091b4       rgszName                   000000018002b1b4     tbb.exp
 0002:00009580       rgwOrd                     000000018002b580     tbb.exp
 0002:00009766       szName                     000000018002b766     tbb.exp
 0002:0000976e       $N00001                    000000018002b76e     tbb.exp
 0002:0000979f       $N00002                    000000018002b79f     tbb.exp
 0002:000097d3       $N00003                    000000018002b7d3     tbb.exp
 0002:00009828       $N00004                    000000018002b828     tbb.exp
 0002:00009883       $N00005                    000000018002b883     tbb.exp
 0002:000098e0       $N00006                    000000018002b8e0     tbb.exp
 0002:000098f9       $N00007                    000000018002b8f9     tbb.exp
 0002:0000991c       $N00008                    000000018002b91c     tbb.exp
 0002:0000994b       $N00009                    000000018002b94b     tbb.exp
 0002:0000997d       $N00010                    000000018002b97d     tbb.exp
 0002:000099b5       $N00011                    000000018002b9b5     tbb.exp
 0002:000099f0       $N00012                    000000018002b9f0     tbb.exp
 0002:00009a23       $N00013                    000000018002ba23     tbb.exp
 0002:00009a3a       $N00014                    000000018002ba3a     tbb.exp
 0002:00009a53       $N00015                    000000018002ba53     tbb.exp
 0002:00009a76       $N00016                    000000018002ba76     tbb.exp
 0002:00009a8c       $N00017                    000000018002ba8c     tbb.exp
 0002:00009ab8       $N00018                    000000018002bab8     tbb.exp
 0002:00009ada       $N00019                    000000018002bada     tbb.exp
 0002:00009b00       $N00020                    000000018002bb00     tbb.exp
 0002:00009b37       $N00021                    000000018002bb37     tbb.exp
 0002:00009b73       $N00022                    000000018002bb73     tbb.exp
 0002:00009ba8       $N00023                    000000018002bba8     tbb.exp
 0002:00009bd7       $N00024                    000000018002bbd7     tbb.exp
 0002:00009c15       $N00025                    000000018002bc15     tbb.exp
 0002:00009c56       $N00026                    000000018002bc56     tbb.exp
 0002:00009ca5       $N00027                    000000018002bca5     tbb.exp
 0002:00009ce6       $N00028                    000000018002bce6     tbb.exp
 0002:00009d2e       $N00029                    000000018002bd2e     tbb.exp
 0002:00009d6c       $N00030                    000000018002bd6c     tbb.exp
 0002:00009db9       $N00031                    000000018002bdb9     tbb.exp
 0002:00009de7       $N00032                    000000018002bde7     tbb.exp
 0002:00009e19       $N00033                    000000018002be19     tbb.exp
 0002:00009e3e       $N00034                    000000018002be3e     tbb.exp
 0002:00009e7d       $N00035                    000000018002be7d     tbb.exp
 0002:00009ec2       $N00036                    000000018002bec2     tbb.exp
 0002:00009f0a       $N00037                    000000018002bf0a     tbb.exp
 0002:00009f37       $N00038                    000000018002bf37     tbb.exp
 0002:00009f70       $N00039                    000000018002bf70     tbb.exp
 0002:00009fa5       $N00040                    000000018002bfa5     tbb.exp
 0002:00009fde       $N00041                    000000018002bfde     tbb.exp
 0002:0000a005       $N00042                    000000018002c005     tbb.exp
 0002:0000a022       $N00043                    000000018002c022     tbb.exp
 0002:0000a055       $N00044                    000000018002c055     tbb.exp
 0002:0000a08d       $N00045                    000000018002c08d     tbb.exp
 0002:0000a0c1       $N00046                    000000018002c0c1     tbb.exp
 0002:0000a0ea       $N00047                    000000018002c0ea     tbb.exp
 0002:0000a10c       $N00048                    000000018002c10c     tbb.exp
 0002:0000a149       $N00049                    000000018002c149     tbb.exp
 0002:0000a175       $N00050                    000000018002c175     tbb.exp
 0002:0000a1b5       $N00051                    000000018002c1b5     tbb.exp
 0002:0000a1e1       $N00052                    000000018002c1e1     tbb.exp
 0002:0000a22b       $N00053                    000000018002c22b     tbb.exp
 0002:0000a267       $N00054                    000000018002c267     tbb.exp
 0002:0000a2aa       $N00055                    000000018002c2aa     tbb.exp
 0002:0000a2e3       $N00056                    000000018002c2e3     tbb.exp
 0002:0000a32b       $N00057                    000000018002c32b     tbb.exp
 0002:0000a354       $N00058                    000000018002c354     tbb.exp
 0002:0000a38f       $N00059                    000000018002c38f     tbb.exp
 0002:0000a3b7       $N00060                    000000018002c3b7     tbb.exp
 0002:0000a3ef       $N00061                    000000018002c3ef     tbb.exp
 0002:0000a415       $N00062                    000000018002c415     tbb.exp
 0002:0000a443       $N00063                    000000018002c443     tbb.exp
 0002:0000a473       $N00064                    000000018002c473     tbb.exp
 0002:0000a4a2       $N00065                    000000018002c4a2     tbb.exp
 0002:0000a4e1       $N00066                    000000018002c4e1     tbb.exp
 0002:0000a519       $N00067                    000000018002c519     tbb.exp
 0002:0000a55b       $N00068                    000000018002c55b     tbb.exp
 0002:0000a598       $N00069                    000000018002c598     tbb.exp
 0002:0000a5d1       $N00070                    000000018002c5d1     tbb.exp
 0002:0000a608       $N00071                    000000018002c608     tbb.exp
 0002:0000a66a       $N00072                    000000018002c66a     tbb.exp
 0002:0000a6a4       $N00073                    000000018002c6a4     tbb.exp
 0002:0000a6dc       $N00074                    000000018002c6dc     tbb.exp
 0002:0000a73e       $N00075                    000000018002c73e     tbb.exp
 0002:0000a79e       $N00076                    000000018002c79e     tbb.exp
 0002:0000a801       $N00077                    000000018002c801     tbb.exp
 0002:0000a843       $N00078                    000000018002c843     tbb.exp
 0002:0000a884       $N00079                    000000018002c884     tbb.exp
 0002:0000a8c5       $N00080                    000000018002c8c5     tbb.exp
 0002:0000a909       $N00081                    000000018002c909     tbb.exp
 0002:0000a954       $N00082                    000000018002c954     tbb.exp
 0002:0000a9a1       $N00083                    000000018002c9a1     tbb.exp
 0002:0000aa00       $N00084                    000000018002ca00     tbb.exp
 0002:0000aa5e       $N00085                    000000018002ca5e     tbb.exp
 0002:0000aabc       $N00086                    000000018002cabc     tbb.exp
 0002:0000ab3d       $N00087                    000000018002cb3d     tbb.exp
 0002:0000ab7b       $N00088                    000000018002cb7b     tbb.exp
 0002:0000aba2       $N00089                    000000018002cba2     tbb.exp
 0002:0000abd1       $N00090                    000000018002cbd1     tbb.exp
 0002:0000ac03       $N00091                    000000018002cc03     tbb.exp
 0002:0000ac42       $N00092                    000000018002cc42     tbb.exp
 0002:0000ac73       $N00093                    000000018002cc73     tbb.exp
 0002:0000acc6       $N00094                    000000018002ccc6     tbb.exp
 0002:0000ad1e       $N00095                    000000018002cd1e     tbb.exp
 0002:0000ad4a       $N00096                    000000018002cd4a     tbb.exp
 0002:0000ad7c       $N00097                    000000018002cd7c     tbb.exp
 0002:0000adc2       $N00098                    000000018002cdc2     tbb.exp
 0002:0000ae17       $N00099                    000000018002ce17     tbb.exp
 0002:0000ae6f       $N00100                    000000018002ce6f     tbb.exp
 0002:0000aea7       $N00101                    000000018002cea7     tbb.exp
 0002:0000aeed       $N00102                    000000018002ceed     tbb.exp
 0002:0000af1e       $N00103                    000000018002cf1e     tbb.exp
 0002:0000af57       $N00104                    000000018002cf57     tbb.exp
 0002:0000af7c       $N00105                    000000018002cf7c     tbb.exp
 0002:0000afb9       $N00106                    000000018002cfb9     tbb.exp
 0002:0000afe8       $N00107                    000000018002cfe8     tbb.exp
 0002:0000b031       $N00108                    000000018002d031     tbb.exp
 0002:0000b07f       $N00109                    000000018002d07f     tbb.exp
 0002:0000b0da       $N00110                    000000018002d0da     tbb.exp
 0002:0000b10e       $N00111                    000000018002d10e     tbb.exp
 0002:0000b140       $N00112                    000000018002d140     tbb.exp
 0002:0000b19c       $N00113                    000000018002d19c     tbb.exp
 0002:0000b1dc       $N00114                    000000018002d1dc     tbb.exp
 0002:0000b22c       $N00115                    000000018002d22c     tbb.exp
 0002:0000b285       $N00116                    000000018002d285     tbb.exp
 0002:0000b2cb       $N00117                    000000018002d2cb     tbb.exp
 0002:0000b319       $N00118                    000000018002d319     tbb.exp
 0002:0000b36f       $N00119                    000000018002d36f     tbb.exp
 0002:0000b3b5       $N00120                    000000018002d3b5     tbb.exp
 0002:0000b40b       $N00121                    000000018002d40b     tbb.exp
 0002:0000b469       $N00122                    000000018002d469     tbb.exp
 0002:0000b4d4       $N00123                    000000018002d4d4     tbb.exp
 0002:0000b51a       $N00124                    000000018002d51a     tbb.exp
 0002:0000b578       $N00125                    000000018002d578     tbb.exp
 0002:0000b5b0       $N00126                    000000018002d5b0     tbb.exp
 0002:0000b60b       $N00127                    000000018002d60b     tbb.exp
 0002:0000b649       $N00128                    000000018002d649     tbb.exp
 0002:0000b68a       $N00129                    000000018002d68a     tbb.exp
 0002:0000b6d4       $N00130                    000000018002d6d4     tbb.exp
 0002:0000b721       $N00131                    000000018002d721     tbb.exp
 0002:0000b760       $N00132                    000000018002d760     tbb.exp
 0002:0000b7a2       $N00133                    000000018002d7a2     tbb.exp
 0002:0000b7ed       $N00134                    000000018002d7ed     tbb.exp
 0002:0000b83b       $N00135                    000000018002d83b     tbb.exp
 0002:0000b887       $N00136                    000000018002d887     tbb.exp
 0002:0000b8d6       $N00137                    000000018002d8d6     tbb.exp
 0002:0000b91d       $N00138                    000000018002d91d     tbb.exp
 0002:0000b971       $N00139                    000000018002d971     tbb.exp
 0002:0000b9a2       $N00140                    000000018002d9a2     tbb.exp
 0002:0000b9dd       $N00141                    000000018002d9dd     tbb.exp
 0002:0000ba13       $N00142                    000000018002da13     tbb.exp
 0002:0000ba6c       $N00143                    000000018002da6c     tbb.exp
 0002:0000baa5       $N00144                    000000018002daa5     tbb.exp
 0002:0000badc       $N00145                    000000018002dadc     tbb.exp
 0002:0000bb15       $N00146                    000000018002db15     tbb.exp
 0002:0000bb4c       $N00147                    000000018002db4c     tbb.exp
 0002:0000bb8f       $N00148                    000000018002db8f     tbb.exp
 0002:0000bbd5       $N00149                    000000018002dbd5     tbb.exp
 0002:0000bc32       $N00150                    000000018002dc32     tbb.exp
 0002:0000bc79       $N00151                    000000018002dc79     tbb.exp
 0002:0000bcc3       $N00152                    000000018002dcc3     tbb.exp
 0002:0000bcee       $N00153                    000000018002dcee     tbb.exp
 0002:0000bd2a       $N00154                    000000018002dd2a     tbb.exp
 0002:0000bd69       $N00155                    000000018002dd69     tbb.exp
 0002:0000bda8       $N00156                    000000018002dda8     tbb.exp
 0002:0000bdef       $N00157                    000000018002ddef     tbb.exp
 0002:0000be34       $N00158                    000000018002de34     tbb.exp
 0002:0000be7d       $N00159                    000000018002de7d     tbb.exp
 0002:0000bec9       $N00160                    000000018002dec9     tbb.exp
 0002:0000bf06       $N00161                    000000018002df06     tbb.exp
 0002:0000bf4d       $N00162                    000000018002df4d     tbb.exp
 0002:0000bf8f       $N00163                    000000018002df8f     tbb.exp
 0002:0000bfcd       $N00164                    000000018002dfcd     tbb.exp
 0002:0000c009       $N00165                    000000018002e009     tbb.exp
 0002:0000c047       $N00166                    000000018002e047     tbb.exp
 0002:0000c083       $N00167                    000000018002e083     tbb.exp
 0002:0000c0e8       $N00168                    000000018002e0e8     tbb.exp
 0002:0000c11b       $N00169                    000000018002e11b     tbb.exp
 0002:0000c14c       $N00170                    000000018002e14c     tbb.exp
 0002:0000c1a6       $N00171                    000000018002e1a6     tbb.exp
 0002:0000c1e6       $N00172                    000000018002e1e6     tbb.exp
 0002:0000c225       $N00173                    000000018002e225     tbb.exp
 0002:0000c24d       $N00174                    000000018002e24d     tbb.exp
 0002:0000c27c       $N00175                    000000018002e27c     tbb.exp
 0002:0000c2c9       $N00176                    000000018002e2c9     tbb.exp
 0002:0000c2f9       $N00177                    000000018002e2f9     tbb.exp
 0002:0000c336       $N00178                    000000018002e336     tbb.exp
 0002:0000c391       $N00179                    000000018002e391     tbb.exp
 0002:0000c3ed       $N00180                    000000018002e3ed     tbb.exp
 0002:0000c44b       $N00181                    000000018002e44b     tbb.exp
 0002:0000c4a3       $N00182                    000000018002e4a3     tbb.exp
 0002:0000c4e5       $N00183                    000000018002e4e5     tbb.exp
 0002:0000c53d       $N00184                    000000018002e53d     tbb.exp
 0002:0000c570       $N00185                    000000018002e570     tbb.exp
 0002:0000c5ac       $N00186                    000000018002e5ac     tbb.exp
 0002:0000c602       $N00187                    000000018002e602     tbb.exp
 0002:0000c63c       $N00188                    000000018002e63c     tbb.exp
 0002:0000c666       $N00189                    000000018002e666     tbb.exp
 0002:0000c697       $N00190                    000000018002e697     tbb.exp
 0002:0000c6cd       $N00191                    000000018002e6cd     tbb.exp
 0002:0000c6f9       $N00192                    000000018002e6f9     tbb.exp
 0002:0000c73e       $N00193                    000000018002e73e     tbb.exp
 0002:0000c771       $N00194                    000000018002e771     tbb.exp
 0002:0000c79a       $N00195                    000000018002e79a     tbb.exp
 0002:0000c7c9       $N00196                    000000018002e7c9     tbb.exp
 0002:0000c7eb       $N00197                    000000018002e7eb     tbb.exp
 0002:0000c827       $N00198                    000000018002e827     tbb.exp
 0002:0000c861       $N00199                    000000018002e861     tbb.exp
 0002:0000c8a2       $N00200                    000000018002e8a2     tbb.exp
 0002:0000c8de       $N00201                    000000018002e8de     tbb.exp
 0002:0000c90e       $N00202                    000000018002e90e     tbb.exp
 0002:0000c941       $N00203                    000000018002e941     tbb.exp
 0002:0000c968       $N00204                    000000018002e968     tbb.exp
 0002:0000c9a4       $N00205                    000000018002e9a4     tbb.exp
 0002:0000c9c1       $N00206                    000000018002e9c1     tbb.exp
 0002:0000c9f7       $N00207                    000000018002e9f7     tbb.exp
 0002:0000ca20       $N00208                    000000018002ea20     tbb.exp
 0002:0000ca3c       $N00209                    000000018002ea3c     tbb.exp
 0002:0000ca66       $N00210                    000000018002ea66     tbb.exp
 0002:0000ca9e       $N00211                    000000018002ea9e     tbb.exp
 0002:0000cac4       $N00212                    000000018002eac4     tbb.exp
 0002:0000cb01       $N00213                    000000018002eb01     tbb.exp
 0002:0000cb3b       $N00214                    000000018002eb3b     tbb.exp
 0002:0000cb67       $N00215                    000000018002eb67     tbb.exp
 0002:0000cba3       $N00216                    000000018002eba3     tbb.exp
 0002:0000cbe4       $N00217                    000000018002ebe4     tbb.exp
 0002:0000cc09       $N00218                    000000018002ec09     tbb.exp
 0002:0000cc40       $N00219                    000000018002ec40     tbb.exp
 0002:0000cc7a       $N00220                    000000018002ec7a     tbb.exp
 0002:0000ccb6       $N00221                    000000018002ecb6     tbb.exp
 0002:0000ccf7       $N00222                    000000018002ecf7     tbb.exp
 0002:0000cd2d       $N00223                    000000018002ed2d     tbb.exp
 0002:0000cd68       $N00224                    000000018002ed68     tbb.exp
 0002:0000cdad       $N00225                    000000018002edad     tbb.exp
 0002:0000cde0       $N00226                    000000018002ede0     tbb.exp
 0002:0000ce1e       $N00227                    000000018002ee1e     tbb.exp
 0002:0000ce43       $N00228                    000000018002ee43     tbb.exp
 0002:0000ce6c       $N00229                    000000018002ee6c     tbb.exp
 0002:0000ce90       $N00230                    000000018002ee90     tbb.exp
 0002:0000cec2       $N00231                    000000018002eec2     tbb.exp
 0002:0000cee5       $N00232                    000000018002eee5     tbb.exp
 0002:0000cf06       $N00233                    000000018002ef06     tbb.exp
 0002:0000cf24       $N00234                    000000018002ef24     tbb.exp
 0002:0000cf3a       $N00235                    000000018002ef3a     tbb.exp
 0002:0000cf50       $N00236                    000000018002ef50     tbb.exp
 0002:0000cf68       $N00237                    000000018002ef68     tbb.exp
 0002:0000cf80       $N00238                    000000018002ef80     tbb.exp
 0002:0000cf9a       $N00239                    000000018002ef9a     tbb.exp
 0002:0000cfb4       $N00240                    000000018002efb4     tbb.exp
 0002:0000cfd4       $N00241                    000000018002efd4     tbb.exp
 0002:0000cfe8       $N00242                    000000018002efe8     tbb.exp
 0002:0000d006       $N00243                    000000018002f006     tbb.exp
 0002:0000d78a       .idata$6                   000000018002f78a     kernel32:KERNEL32.dll
 0002:0000d8aa       .idata$6                   000000018002f8aa     msvcprt:MSVCP140.dll
 0002:0000d9da       .idata$6                   000000018002f9da     vcruntime:VCRUNTIME140_1.dll
 0002:0000d9ee       .idata$6                   000000018002f9ee     vcruntime:VCRUNTIME140.dll
 0002:0000dbc8       .idata$6                   000000018002fbc8     ucrt:api-ms-win-crt-string-l1-1-0.dll
 0002:0000dbea       .idata$6                   000000018002fbea     ucrt:api-ms-win-crt-heap-l1-1-0.dll
 0002:0000dc0a       .idata$6                   000000018002fc0a     ucrt:api-ms-win-crt-runtime-l1-1-0.dll
 0002:0000dc2c       .idata$6                   000000018002fc2c     ucrt:api-ms-win-crt-stdio-l1-1-0.dll
 0002:0000dc4c       .idata$6                   000000018002fc4c     ucrt:api-ms-win-crt-environment-l1-1-0.dll
 0003:00000038       ?dummy@?1??make_invalid@micro_queue@internal@tbb@@QEAAX_K@Z@4Upage@concurrent_queue_base_v3@34@A 0000000180030038     concurrent_queue.obj
 0003:00000240       ?api_list@@3PAU___itt_api_info@@A 0000000180030240     itt_notify.obj
 0003:00002098       ?padded_allocate_handler@internal@tbb@@3P6APEAX_K0@ZEA 0000000180032098     cache_aligned_allocator.obj
 0003:000020a0       ?padded_free_handler@internal@tbb@@3P6AXPEAX@ZEA 00000001800320a0     cache_aligned_allocator.obj
 0003:000020a8       ?MallocHandler@internal@tbb@@3P6APEAX_K@ZEA 00000001800320a8     cache_aligned_allocator.obj
 0003:000020b0       ?FreeHandler@internal@tbb@@3P6AXPEAX@ZEA 00000001800320b0     cache_aligned_allocator.obj
 0003:000020b8       ?__TBB_condvar_wait@internal@tbb@@3P6AHPEAU_RTL_CONDITION_VARIABLE@@PEAU_RTL_CRITICAL_SECTION@@K@ZEA 00000001800320b8     condition_variable.obj
 0003:000020c0       ?__TBB_condvar_notify_one@internal@tbb@@3P6AXPEAU_RTL_CONDITION_VARIABLE@@@ZEA 00000001800320c0     condition_variable.obj
 0003:000020c8       ?__TBB_init_condvar@internal@tbb@@3P6AXPEAU_RTL_CONDITION_VARIABLE@@@ZEA 00000001800320c8     condition_variable.obj
 0003:000020d0       ?__TBB_condvar_notify_all@internal@tbb@@3P6AXPEAU_RTL_CONDITION_VARIABLE@@@ZEA 00000001800320d0     condition_variable.obj
 0003:000020e0       ?group_alias@@3PAU___itt_group_alias@@A 00000001800320e0     itt_notify.obj
 0003:00002120       ?group_list@@3PAU___itt_group_list@@A 0000000180032120     itt_notify.obj
 0003:00002220       ?__TBB_destroy_condvar@internal@tbb@@3P6AXPEAU_RTL_CONDITION_VARIABLE@@@ZEA 0000000180032220     condition_variable.obj
 0003:00002230       ?strings_for_itt@internal@tbb@@3PAUresource_string@12@A 0000000180032230     tbb_main.obj
 0003:000025f0       ?stack_size_ctl@internal@tbb@@3Vstack_size_control@12@A 00000001800325f0     tbb_main.obj
 0003:00002670       ?allowed_parallelism_ctl@internal@tbb@@3Vallowed_parallelism_control@12@A 0000000180032670     tbb_main.obj
 0003:000026f0       ?env_value@?1??__itt_get_env_var@@YAPEBDPEBD@Z@4PEADEA 00000001800326f0     itt_notify.obj
 0003:000026f8       ?dummy_index@?1??initialization_impl@numa_topology@internal@tbb@@YAXXZ@4HA 00000001800326f8     governor.obj
 0003:00003300       GS_ExceptionRecord         0000000180033300     MSVCRT:gs_report.obj
 0003:000033a0       GS_ContextRecord           00000001800333a0     MSVCRT:gs_report.obj
 0003:00003880       ?g_tss_cv@@3U_RTL_CONDITION_VARIABLE@@A 0000000180033880     MSVCRT:thread_safe_statics.obj
 0003:00003888       ?g_tss_event@@3PEAXEA      0000000180033888     MSVCRT:thread_safe_statics.obj
 0003:00003890       ?g_tss_mutex@@3U_RTL_CRITICAL_SECTION@@A 0000000180033890     MSVCRT:thread_safe_statics.obj
 0003:000038b8       ?g_sleep_condition_variable_cs@@3P6AHPEAU_RTL_CONDITION_VARIABLE@@PEAU_RTL_CRITICAL_SECTION@@K@ZEA 00000001800338b8     MSVCRT:thread_safe_statics.obj
 0003:000038c0       ?g_wake_all_condition_variable@@3P6AXPEAU_RTL_CONDITION_VARIABLE@@@ZEA 00000001800338c0     MSVCRT:thread_safe_statics.obj
 0003:000038d8       ?is_initialized_as_dll@@3_NA 00000001800338d8     MSVCRT:utility.obj
 0003:000038d9       ?module_local_atexit_table_initialized@@3_NA 00000001800338d9     MSVCRT:utility.obj
 0003:000038e0       ?module_local_atexit_table@@3U_onexit_table_t@@A 00000001800338e0     MSVCRT:utility.obj
 0003:000038f8       ?module_local_at_quick_exit_table@@3U_onexit_table_t@@A 00000001800338f8     MSVCRT:utility.obj
 0003:00003910       ?__proc_attached@@3HA      0000000180033910     MSVCRT:dll_dllmain.obj
 0003:00003980       ?TBB_GetThreadGroupAffinity@internal@tbb@@3P6AHPEAXPEAUTBB_GROUP_AFFINITY@12@@ZEA 0000000180033980     tbb_misc_ex.obj
 0003:00003988       ?TBB_SetThreadGroupAffinity@internal@tbb@@3P6AHPEAXPEBUTBB_GROUP_AFFINITY@12@PEAU312@@ZEA 0000000180033988     tbb_misc_ex.obj
 0003:00003d90       ?TBB_GetActiveProcessorCount@internal@tbb@@3P6AKG@ZEA 0000000180033d90     tbb_misc_ex.obj
 0003:00003d98       ?TBB_GetActiveProcessorGroupCount@internal@tbb@@3P6AGXZEA 0000000180033d98     tbb_misc_ex.obj
 0003:00003da0       ?restore_affinity_ptr@internal@tbb@@3P6AXPEAVbinding_handler@12@H@ZEA 0000000180033da0     governor.obj
 0003:00003da8       ?initialize_numa_topology_ptr@internal@tbb@@3P6AX_KAEAHAEAPEAH2@ZEA 0000000180033da8     governor.obj
 0003:00003db0       ?allocate_binding_handler_ptr@internal@tbb@@3P6APEAVbinding_handler@12@H@ZEA 0000000180033db0     governor.obj
 0003:00003db8       ?watch_stack_handler@internal@tbb@@3P6AHPEAU__cilk_tbb_unwatch_thunk@@U__cilk_tbb_stack_op_thunk@@@ZEA 0000000180033db8     governor.obj
 0003:00003dc0       ?deallocate_binding_handler_ptr@internal@tbb@@3P6AXPEAVbinding_handler@12@@ZEA 0000000180033dc0     governor.obj
 0003:00003dc8       ?bind_to_node_ptr@internal@tbb@@3P6AXPEAVbinding_handler@12@HH@ZEA 0000000180033dc8     governor.obj
 0003:00003e29       ?static_init_dl_data@internal@tbb@@3Ustatic_init_dl_data_t@12@A 0000000180033e29     dynamic_link.obj
 0003:00003e2c       ?initialization_state@internal@tbb@@3U?$atomic@W4do_once_state@internal@tbb@@@2@A 0000000180033e2c     cache_aligned_allocator.obj
 0003:00003e30       ?the_dummy_context@internal@tbb@@3Vtask_group_context@2@A 0000000180033e30     scheduler.obj
 0003:00003fb0       ?static_invalid_page@internal@tbb@@3PEAXEA 0000000180033fb0     concurrent_queue.obj
 0003:00003fb8       ?condvar_api_state@internal@tbb@@3U?$atomic@W4do_once_state@internal@tbb@@@2@A 0000000180033fb8     condition_variable.obj
 0003:00003fbc       ?PrintVersionFlag@internal@tbb@@3_NA 0000000180033fbc     tbb_misc.obj
 0003:00003fbd       ?ITT_Present@internal@tbb@@3_NA 0000000180033fbd     tbb_main.obj
 0003:00003fbe       ?ITT_InitializationDone@internal@tbb@@3U?$atomic@_N@2@A 0000000180033fbe     tbb_main.obj
 0003:00003fc0       ?ap_data@internal@tbb@@3Uap_data_t@12@A 0000000180033fc0     dynamic_link.obj
 0003:000040d0       ?assertion_handler@tbb@@3P6AXPEBDH00@ZEA 00000001800340d0     tbb_misc.obj
 0003:000040d8       ?hardware_concurrency_info@internal@tbb@@3U?$atomic@W4do_once_state@internal@tbb@@@2@A 00000001800340d8     tbb_misc_ex.obj
 0003:000040dc       ?cilkrts_load_state@internal@tbb@@3U?$atomic@W4do_once_state@internal@tbb@@@2@A 00000001800340dc     governor.obj
 0003:000040e0       ?numa_nodes_count@?A0xacc6fbda@numa_topology@internal@tbb@@3HA 00000001800340e0     governor.obj
 0003:000040e4       ?numa_topology_init_state@?A0xacc6fbda@numa_topology@internal@tbb@@3U?$atomic@W4do_once_state@internal@tbb@@@4@A 00000001800340e4     governor.obj
 0003:000040e8       ?numa_indexes@?A0xacc6fbda@numa_topology@internal@tbb@@3PEAHEA 00000001800340e8     governor.obj
 0003:000040f0       ?default_concurrency_list@?A0xacc6fbda@numa_topology@internal@tbb@@3PEAHEA 00000001800340f0     governor.obj
 0003:000040f8       ?tbb_domains@internal@tbb@@3PAPEAU___itt_domain@@A 00000001800340f8     tbb_main.obj
 0003:00004110       ?current_thread@?1??__itt_init_ittlib@@9@4KC 0000000180034110     itt_notify.obj
 0003:00004114       ?current_thread@?1??__itt_fini_ittlib@@9@4KC 0000000180034114     itt_notify.obj
 0003:00004120       ?env_buff@?1??__itt_get_env_var@@YAPEBDPEBD@Z@4PADA 0000000180034120     itt_notify.obj
 0003:00005120       ?already_failed@?6??assertion_failure@tbb@@YAXPEBDH00@Z@4_NA 0000000180035120     tbb_misc.obj
 0003:00005124       ?$TSS0@?1??initialization_impl@numa_topology@internal@tbb@@YAXXZ@4HA 0000000180035124     governor.obj
 0003:00005128       ?dummy_concurrency@?1??initialization_impl@numa_topology@internal@tbb@@YAXXZ@4HA 0000000180035128     governor.obj
 0005:000000a0       $R000000                   00000001800390a0     tbb_resource.res
 0005:00000480       $R0003E0                   0000000180039480     tbb_resource.res
